;--------------------------------------------------------
; File Created by SDCC : FreeWare ANSI-C Compiler
; Version 2.6.0 #4309 (Jul 28 2006)
; This file generated Sat May 02 15:12:57 2015
;--------------------------------------------------------
	.module driver_sta013
	.optsdcc -mmcs51 --model-small
	
;--------------------------------------------------------
; Public variables in this module
;--------------------------------------------------------
	.globl _P5_7
	.globl _P5_6
	.globl _P5_5
	.globl _P5_4
	.globl _P5_3
	.globl _P5_2
	.globl _P5_1
	.globl _P5_0
	.globl _P4_7
	.globl _P4_6
	.globl _P4_5
	.globl _P4_4
	.globl _P4_3
	.globl _P4_2
	.globl _P4_1
	.globl _P4_0
	.globl _PX0L
	.globl _PT0L
	.globl _PX1L
	.globl _PT1L
	.globl _PLS
	.globl _PT2L
	.globl _PPCL
	.globl _EC
	.globl _CCF0
	.globl _CCF1
	.globl _CCF2
	.globl _CCF3
	.globl _CCF4
	.globl _CR
	.globl _CF
	.globl _TF2
	.globl _EXF2
	.globl _RCLK
	.globl _TCLK
	.globl _EXEN2
	.globl _TR2
	.globl _C_T2
	.globl _CP_RL2
	.globl _T2CON_7
	.globl _T2CON_6
	.globl _T2CON_5
	.globl _T2CON_4
	.globl _T2CON_3
	.globl _T2CON_2
	.globl _T2CON_1
	.globl _T2CON_0
	.globl _PT2
	.globl _ET2
	.globl _CY
	.globl _AC
	.globl _F0
	.globl _RS1
	.globl _RS0
	.globl _OV
	.globl _F1
	.globl _P
	.globl _PS
	.globl _PT1
	.globl _PX1
	.globl _PT0
	.globl _PX0
	.globl _RD
	.globl _WR
	.globl _T1
	.globl _T0
	.globl _INT1
	.globl _INT0
	.globl _TXD
	.globl _RXD
	.globl _P3_7
	.globl _P3_6
	.globl _P3_5
	.globl _P3_4
	.globl _P3_3
	.globl _P3_2
	.globl _P3_1
	.globl _P3_0
	.globl _EA
	.globl _ES
	.globl _ET1
	.globl _EX1
	.globl _ET0
	.globl _EX0
	.globl _P2_7
	.globl _P2_6
	.globl _P2_5
	.globl _P2_4
	.globl _P2_3
	.globl _P2_2
	.globl _P2_1
	.globl _P2_0
	.globl _SM0
	.globl _SM1
	.globl _SM2
	.globl _REN
	.globl _TB8
	.globl _RB8
	.globl _TI
	.globl _RI
	.globl _P1_7
	.globl _P1_6
	.globl _P1_5
	.globl _P1_4
	.globl _P1_3
	.globl _P1_2
	.globl _P1_1
	.globl _P1_0
	.globl _TF1
	.globl _TR1
	.globl _TF0
	.globl _TR0
	.globl _IE1
	.globl _IT1
	.globl _IE0
	.globl _IT0
	.globl _P0_7
	.globl _P0_6
	.globl _P0_5
	.globl _P0_4
	.globl _P0_3
	.globl _P0_2
	.globl _P0_1
	.globl _P0_0
	.globl _EECON
	.globl _KBF
	.globl _KBE
	.globl _KBLS
	.globl _BRL
	.globl _BDRCON
	.globl _T2MOD
	.globl _SPDAT
	.globl _SPSTA
	.globl _SPCON
	.globl _SADEN
	.globl _SADDR
	.globl _WDTPRG
	.globl _WDTRST
	.globl _P5
	.globl _P4
	.globl _IPH1
	.globl _IPL1
	.globl _IPH0
	.globl _IPL0
	.globl _IEN1
	.globl _IEN0
	.globl _CMOD
	.globl _CL
	.globl _CH
	.globl _CCON
	.globl _CCAPM4
	.globl _CCAPM3
	.globl _CCAPM2
	.globl _CCAPM1
	.globl _CCAPM0
	.globl _CCAP4L
	.globl _CCAP3L
	.globl _CCAP2L
	.globl _CCAP1L
	.globl _CCAP0L
	.globl _CCAP4H
	.globl _CCAP3H
	.globl _CCAP2H
	.globl _CCAP1H
	.globl _CCAP0H
	.globl _CKCKON1
	.globl _CKCKON0
	.globl _CKRL
	.globl _AUXR1
	.globl _AUXR
	.globl _TH2
	.globl _TL2
	.globl _RCAP2H
	.globl _RCAP2L
	.globl _T2CON
	.globl _B
	.globl _ACC
	.globl _PSW
	.globl _IP
	.globl _P3
	.globl _IE
	.globl _P2
	.globl _SBUF
	.globl _SCON
	.globl _P1
	.globl _TH1
	.globl _TH0
	.globl _TL1
	.globl _TL0
	.globl _TMOD
	.globl _TCON
	.globl _PCON
	.globl _DPH
	.globl _DPL
	.globl _SP
	.globl _P0
	.globl _xbuffer
	.globl _SDCard
	.globl _CardType
	.globl _Stat
	.globl _STA013ReadReg
	.globl _STA013WriteReg
	.globl _STA013DownloadUpdate
	.globl _STA013Init
	.globl _STA013StartDecoder
	.globl _STA013StopDecoder
	.globl _STA013PauseDecoder
	.globl _STA013ResumeDecoder
	.globl _STA013GetMP3Info
	.globl _STA013GetAverageBitrate
	.globl _STA013SetVolume
	.globl _STA013SetTone
;--------------------------------------------------------
; special function registers
;--------------------------------------------------------
	.area RSEG    (DATA)
_P0	=	0x0080
_SP	=	0x0081
_DPL	=	0x0082
_DPH	=	0x0083
_PCON	=	0x0087
_TCON	=	0x0088
_TMOD	=	0x0089
_TL0	=	0x008a
_TL1	=	0x008b
_TH0	=	0x008c
_TH1	=	0x008d
_P1	=	0x0090
_SCON	=	0x0098
_SBUF	=	0x0099
_P2	=	0x00a0
_IE	=	0x00a8
_P3	=	0x00b0
_IP	=	0x00b8
_PSW	=	0x00d0
_ACC	=	0x00e0
_B	=	0x00f0
_T2CON	=	0x00c8
_RCAP2L	=	0x00ca
_RCAP2H	=	0x00cb
_TL2	=	0x00cc
_TH2	=	0x00cd
_AUXR	=	0x008e
_AUXR1	=	0x00a2
_CKRL	=	0x0097
_CKCKON0	=	0x008f
_CKCKON1	=	0x00af
_CCAP0H	=	0x00fa
_CCAP1H	=	0x00fb
_CCAP2H	=	0x00fc
_CCAP3H	=	0x00fd
_CCAP4H	=	0x00fe
_CCAP0L	=	0x00ea
_CCAP1L	=	0x00eb
_CCAP2L	=	0x00ec
_CCAP3L	=	0x00ed
_CCAP4L	=	0x00ee
_CCAPM0	=	0x00da
_CCAPM1	=	0x00db
_CCAPM2	=	0x00dc
_CCAPM3	=	0x00dd
_CCAPM4	=	0x00de
_CCON	=	0x00d8
_CH	=	0x00f9
_CL	=	0x00e9
_CMOD	=	0x00d9
_IEN0	=	0x00a8
_IEN1	=	0x00b1
_IPL0	=	0x00b8
_IPH0	=	0x00b7
_IPL1	=	0x00b2
_IPH1	=	0x00b3
_P4	=	0x00c0
_P5	=	0x00d8
_WDTRST	=	0x00a6
_WDTPRG	=	0x00a7
_SADDR	=	0x00a9
_SADEN	=	0x00b9
_SPCON	=	0x00c3
_SPSTA	=	0x00c4
_SPDAT	=	0x00c5
_T2MOD	=	0x00c9
_BDRCON	=	0x009b
_BRL	=	0x009a
_KBLS	=	0x009c
_KBE	=	0x009d
_KBF	=	0x009e
_EECON	=	0x00d2
;--------------------------------------------------------
; special function bits
;--------------------------------------------------------
	.area RSEG    (DATA)
_P0_0	=	0x0080
_P0_1	=	0x0081
_P0_2	=	0x0082
_P0_3	=	0x0083
_P0_4	=	0x0084
_P0_5	=	0x0085
_P0_6	=	0x0086
_P0_7	=	0x0087
_IT0	=	0x0088
_IE0	=	0x0089
_IT1	=	0x008a
_IE1	=	0x008b
_TR0	=	0x008c
_TF0	=	0x008d
_TR1	=	0x008e
_TF1	=	0x008f
_P1_0	=	0x0090
_P1_1	=	0x0091
_P1_2	=	0x0092
_P1_3	=	0x0093
_P1_4	=	0x0094
_P1_5	=	0x0095
_P1_6	=	0x0096
_P1_7	=	0x0097
_RI	=	0x0098
_TI	=	0x0099
_RB8	=	0x009a
_TB8	=	0x009b
_REN	=	0x009c
_SM2	=	0x009d
_SM1	=	0x009e
_SM0	=	0x009f
_P2_0	=	0x00a0
_P2_1	=	0x00a1
_P2_2	=	0x00a2
_P2_3	=	0x00a3
_P2_4	=	0x00a4
_P2_5	=	0x00a5
_P2_6	=	0x00a6
_P2_7	=	0x00a7
_EX0	=	0x00a8
_ET0	=	0x00a9
_EX1	=	0x00aa
_ET1	=	0x00ab
_ES	=	0x00ac
_EA	=	0x00af
_P3_0	=	0x00b0
_P3_1	=	0x00b1
_P3_2	=	0x00b2
_P3_3	=	0x00b3
_P3_4	=	0x00b4
_P3_5	=	0x00b5
_P3_6	=	0x00b6
_P3_7	=	0x00b7
_RXD	=	0x00b0
_TXD	=	0x00b1
_INT0	=	0x00b2
_INT1	=	0x00b3
_T0	=	0x00b4
_T1	=	0x00b5
_WR	=	0x00b6
_RD	=	0x00b7
_PX0	=	0x00b8
_PT0	=	0x00b9
_PX1	=	0x00ba
_PT1	=	0x00bb
_PS	=	0x00bc
_P	=	0x00d0
_F1	=	0x00d1
_OV	=	0x00d2
_RS0	=	0x00d3
_RS1	=	0x00d4
_F0	=	0x00d5
_AC	=	0x00d6
_CY	=	0x00d7
_ET2	=	0x00ad
_PT2	=	0x00bd
_T2CON_0	=	0x00c8
_T2CON_1	=	0x00c9
_T2CON_2	=	0x00ca
_T2CON_3	=	0x00cb
_T2CON_4	=	0x00cc
_T2CON_5	=	0x00cd
_T2CON_6	=	0x00ce
_T2CON_7	=	0x00cf
_CP_RL2	=	0x00c8
_C_T2	=	0x00c9
_TR2	=	0x00ca
_EXEN2	=	0x00cb
_TCLK	=	0x00cc
_RCLK	=	0x00cd
_EXF2	=	0x00ce
_TF2	=	0x00cf
_CF	=	0x00df
_CR	=	0x00de
_CCF4	=	0x00dc
_CCF3	=	0x00db
_CCF2	=	0x00da
_CCF1	=	0x00d9
_CCF0	=	0x00d8
_EC	=	0x00ae
_PPCL	=	0x00be
_PT2L	=	0x00bd
_PLS	=	0x00bc
_PT1L	=	0x00bb
_PX1L	=	0x00ba
_PT0L	=	0x00b9
_PX0L	=	0x00b8
_P4_0	=	0x00c0
_P4_1	=	0x00c1
_P4_2	=	0x00c2
_P4_3	=	0x00c3
_P4_4	=	0x00c4
_P4_5	=	0x00c5
_P4_6	=	0x00c6
_P4_7	=	0x00c7
_P5_0	=	0x00d8
_P5_1	=	0x00d9
_P5_2	=	0x00da
_P5_3	=	0x00db
_P5_4	=	0x00dc
_P5_5	=	0x00dd
_P5_6	=	0x00de
_P5_7	=	0x00df
;--------------------------------------------------------
; overlayable register banks
;--------------------------------------------------------
	.area REG_BANK_0	(REL,OVR,DATA)
	.ds 8
;--------------------------------------------------------
; internal ram data
;--------------------------------------------------------
	.area DSEG    (DATA)
;--------------------------------------------------------
; overlayable items in internal ram 
;--------------------------------------------------------
	.area OSEG    (OVR,DATA)
;--------------------------------------------------------
; indirectly addressable internal ram data
;--------------------------------------------------------
	.area ISEG    (DATA)
;--------------------------------------------------------
; bit data
;--------------------------------------------------------
	.area BSEG    (BIT)
;--------------------------------------------------------
; paged external ram data
;--------------------------------------------------------
	.area PSEG    (PAG,XDATA)
;--------------------------------------------------------
; external ram data
;--------------------------------------------------------
	.area XSEG    (XDATA)
_lcdinstwrptr	=	0xf000
_lcdinstrdptr	=	0xf100
_lcddatawrptr	=	0xf200
_lcddatardptr	=	0xf300
_Stat::
	.ds 1
_CardType	=	0x1000
_SDCard	=	0x2000
_xbuffer	=	0x3000
;--------------------------------------------------------
; external initialized ram data
;--------------------------------------------------------
	.area XISEG   (XDATA)
	.area HOME    (CODE)
	.area GSINIT0 (CODE)
	.area GSINIT1 (CODE)
	.area GSINIT2 (CODE)
	.area GSINIT3 (CODE)
	.area GSINIT4 (CODE)
	.area GSINIT5 (CODE)
	.area GSINIT  (CODE)
	.area GSFINAL (CODE)
	.area CSEG    (CODE)
;--------------------------------------------------------
; global & static initialisations
;--------------------------------------------------------
	.area HOME    (CODE)
	.area GSINIT  (CODE)
	.area GSFINAL (CODE)
	.area GSINIT  (CODE)
;--------------------------------------------------------
; Home
;--------------------------------------------------------
	.area HOME    (CODE)
	.area CSEG    (CODE)
;--------------------------------------------------------
; code
;--------------------------------------------------------
	.area CSEG    (CODE)
;------------------------------------------------------------
;Allocation info for local variables in function 'STA013ReadReg'
;------------------------------------------------------------
;reg                       Allocated to registers r2 
;------------------------------------------------------------
;	Drivers/driver_sta013.c:68: unsigned char STA013ReadReg(unsigned char reg)
;	-----------------------------------------
;	 function STA013ReadReg
;	-----------------------------------------
_STA013ReadReg:
	ar2 = 0x02
	ar3 = 0x03
	ar4 = 0x04
	ar5 = 0x05
	ar6 = 0x06
	ar7 = 0x07
	ar0 = 0x00
	ar1 = 0x01
;	genReceive
	mov	r2,dpl
;	Drivers/driver_sta013.c:70: return  i2cReceive(STA_I2C_DEV, reg);
;	genIpush
	push	ar2
;	genCall
	mov	dpl,#0x86
	lcall	_i2cReceive
	dec	sp
;	genRet
;	Peephole 300	removed redundant label 00101$
	ret
;------------------------------------------------------------
;Allocation info for local variables in function 'STA013WriteReg'
;------------------------------------------------------------
;data1                     Allocated to stack - offset -3
;reg                       Allocated to registers r2 
;------------------------------------------------------------
;	Drivers/driver_sta013.c:74: void STA013WriteReg(unsigned char reg, unsigned char data1)
;	-----------------------------------------
;	 function STA013WriteReg
;	-----------------------------------------
_STA013WriteReg:
	push	_bp
	mov	_bp,sp
;	genReceive
	mov	r2,dpl
;	Drivers/driver_sta013.c:76: i2cSend(STA_I2C_DEV, reg, data1);
;	genIpush
	push	ar2
	mov	r0,_bp
	dec	r0
	dec	r0
	dec	r0
	mov	a,@r0
	push	acc
;	genIpush
	push	ar2
;	genCall
	mov	dpl,#0x86
	lcall	_i2cSend
	dec	sp
	dec	sp
	pop	ar2
;	Drivers/driver_sta013.c:77: if (reg==STA_REG_SOFT_RESET)    // Wait for 90ms after delay
;	genCmpEq
;	gencjneshort
;	Peephole 112.b	changed ljmp to sjmp
;	Peephole 198.b	optimized misc jump sequence
	cjne	r2,#0x10,00103$
;	Peephole 200.b	removed redundant sjmp
;	Peephole 300	removed redundant label 00106$
;	Peephole 300	removed redundant label 00107$
;	Drivers/driver_sta013.c:78: Delay(90);                  // Not waiting will not load Patch properly as Patch also contains few soft resets
;	genCall
;	Peephole 182.b	used 16 bit load of dptr
	mov	dptr,#0x005A
	lcall	_Delay
00103$:
	pop	_bp
	ret
;------------------------------------------------------------
;Allocation info for local variables in function 'STA013DownloadUpdate'
;------------------------------------------------------------
;i                         Allocated to registers r2 r3 
;------------------------------------------------------------
;	Drivers/driver_sta013.c:82: void STA013DownloadUpdate(void)
;	-----------------------------------------
;	 function STA013DownloadUpdate
;	-----------------------------------------
_STA013DownloadUpdate:
;	Drivers/driver_sta013.c:84: unsigned int i=0;
;	genAssign
	mov	r2,#0x00
	mov	r3,#0x00
;	Drivers/driver_sta013.c:85: while( (STA013_Patch[i] != 0xff) )
00101$:
;	genPlus
;	Peephole 236.g	used r2 instead of ar2
	mov	a,r2
	add	a,#_STA013_Patch
	mov	dpl,a
;	Peephole 236.g	used r3 instead of ar3
	mov	a,r3
	addc	a,#(_STA013_Patch >> 8)
	mov	dph,a
;	genPointerGet
;	genCodePointerGet
	clr	a
	movc	a,@a+dptr
	mov	r4,a
;	genCmpEq
;	gencjneshort
	cjne	r4,#0xFF,00108$
;	Peephole 112.b	changed ljmp to sjmp
;	Peephole 251.b	replaced sjmp to ret with ret
	ret
00108$:
;	Drivers/driver_sta013.c:86: STA013WriteReg(STA013_Patch[i++], STA013_Patch[i++]);
;	genAssign
	mov	ar4,r2
	mov	ar5,r3
;	genPlus
;     genPlusIncr
	inc	r2
	cjne	r2,#0x00,00109$
	inc	r3
00109$:
;	genPlus
;	Peephole 236.g	used r4 instead of ar4
	mov	a,r4
	add	a,#_STA013_Patch
	mov	dpl,a
;	Peephole 236.g	used r5 instead of ar5
	mov	a,r5
	addc	a,#(_STA013_Patch >> 8)
	mov	dph,a
;	genPointerGet
;	genCodePointerGet
	clr	a
	movc	a,@a+dptr
	mov	r4,a
;	genAssign
	mov	ar5,r2
	mov	ar6,r3
;	genPlus
;     genPlusIncr
	inc	r2
	cjne	r2,#0x00,00110$
	inc	r3
00110$:
;	genPlus
;	Peephole 236.g	used r5 instead of ar5
	mov	a,r5
	add	a,#_STA013_Patch
	mov	dpl,a
;	Peephole 236.g	used r6 instead of ar6
	mov	a,r6
	addc	a,#(_STA013_Patch >> 8)
	mov	dph,a
;	genPointerGet
;	genCodePointerGet
	clr	a
	movc	a,@a+dptr
	mov	r5,a
;	genIpush
	push	ar2
	push	ar3
	push	ar4
;	genCall
	mov	dpl,r5
	lcall	_STA013WriteReg
	dec	sp
	pop	ar3
	pop	ar2
;	Peephole 112.b	changed ljmp to sjmp
	sjmp	00101$
;	Peephole 259.a	removed redundant label 00104$ and ret
;
;------------------------------------------------------------
;Allocation info for local variables in function 'STA013Init'
;------------------------------------------------------------
;------------------------------------------------------------
;	Drivers/driver_sta013.c:92: unsigned char STA013Init(void)
;	-----------------------------------------
;	 function STA013Init
;	-----------------------------------------
_STA013Init:
;	Drivers/driver_sta013.c:94: Delay(30);
;	genCall
;	Peephole 182.b	used 16 bit load of dptr
	mov	dptr,#0x001E
	lcall	_Delay
;	Drivers/driver_sta013.c:96: if(STA013ReadReg(STA_REG_IDENT) != STA_IDENT)
;	genCall
	mov	dpl,#0x01
	lcall	_STA013ReadReg
	mov	r2,dpl
;	genCmpEq
;	gencjneshort
	cjne	r2,#0xAC,00106$
;	Peephole 112.b	changed ljmp to sjmp
	sjmp	00102$
00106$:
;	Drivers/driver_sta013.c:101: return FALSE;
;	genRet
	mov	dpl,#0x00
;	Peephole 112.b	changed ljmp to sjmp
;	Peephole 251.b	replaced sjmp to ret with ret
	ret
00102$:
;	Drivers/driver_sta013.c:105: STA013WriteReg(STA_REG_DATA_REQ_ENABLE,0x04);
;	genIpush
	mov	a,#0x04
	push	acc
;	genCall
	mov	dpl,#0x18
	lcall	_STA013WriteReg
	dec	sp
;	Drivers/driver_sta013.c:108: STA013DownloadUpdate();
;	genCall
	lcall	_STA013DownloadUpdate
;	Drivers/driver_sta013.c:111: STA013StartDecoder();
;	genCall
	lcall	_STA013StartDecoder
;	Drivers/driver_sta013.c:113: return TRUE;
;	genRet
	mov	dpl,#0x01
;	Peephole 300	removed redundant label 00103$
	ret
;------------------------------------------------------------
;Allocation info for local variables in function 'STA013StartDecoder'
;------------------------------------------------------------
;------------------------------------------------------------
;	Drivers/driver_sta013.c:119: void STA013StartDecoder(void)
;	-----------------------------------------
;	 function STA013StartDecoder
;	-----------------------------------------
_STA013StartDecoder:
;	Drivers/driver_sta013.c:122: STA013WriteReg(STA_REG_SOFT_RESET,			0x01);
;	genIpush
	mov	a,#0x01
	push	acc
;	genCall
	mov	dpl,#0x10
	lcall	_STA013WriteReg
	dec	sp
;	Drivers/driver_sta013.c:123: STA013WriteReg(STA_REG_SOFT_RESET,			0x00);
;	genIpush
;	Peephole 181	changed mov to clr
	clr	a
	push	acc
;	genCall
	mov	dpl,#0x10
	lcall	_STA013WriteReg
	dec	sp
;	Drivers/driver_sta013.c:126: STA013WriteReg(STA_REG_MUTE,				0x01);
;	genIpush
	mov	a,#0x01
	push	acc
;	genCall
	mov	dpl,#0x14
	lcall	_STA013WriteReg
	dec	sp
;	Drivers/driver_sta013.c:127: STA013WriteReg(STA_REG_PCMDIVIDER,			0x01);	// 256X OVERSAMPLING 32-bit mode, O_FAC = 256
;	genIpush
	mov	a,#0x01
	push	acc
;	genCall
	mov	dpl,#0x54
	lcall	_STA013WriteReg
	dec	sp
;	Drivers/driver_sta013.c:128: STA013WriteReg(STA_REG_PCMCONF,				33);	// SET I2S FORMAT FOR CS4334
;	genIpush
	mov	a,#0x21
	push	acc
;	genCall
	mov	dpl,#0x55
	lcall	_STA013WriteReg
	dec	sp
;	Drivers/driver_sta013.c:131: STA013WriteReg(STA_REG_PLLFRAC_441_H,		04);
;	genIpush
	mov	a,#0x04
	push	acc
;	genCall
	mov	dpl,#0x52
	lcall	_STA013WriteReg
	dec	sp
;	Drivers/driver_sta013.c:132: STA013WriteReg(STA_REG_PLLFRAC_441_L,		00);
;	genIpush
;	Peephole 181	changed mov to clr
	clr	a
	push	acc
;	genCall
	mov	dpl,#0x51
	lcall	_STA013WriteReg
	dec	sp
;	Drivers/driver_sta013.c:133: STA013WriteReg(STA_REG_PLLFRAC_H,			85);
;	genIpush
	mov	a,#0x55
	push	acc
;	genCall
	mov	dpl,#0x65
	lcall	_STA013WriteReg
	dec	sp
;	Drivers/driver_sta013.c:134: STA013WriteReg(STA_REG_PLLFRAC_L,			85);
;	genIpush
	mov	a,#0x55
	push	acc
;	genCall
	mov	dpl,#0x64
	lcall	_STA013WriteReg
	dec	sp
;	Drivers/driver_sta013.c:135: STA013WriteReg(STA_REG_MFSDF_441,			16);
;	genIpush
	mov	a,#0x10
	push	acc
;	genCall
	mov	dpl,#0x50
	lcall	_STA013WriteReg
	dec	sp
;	Drivers/driver_sta013.c:136: STA013WriteReg(STA_REG_MFSDF,				15);
;	genIpush
	mov	a,#0x0F
	push	acc
;	genCall
	mov	dpl,#0x61
	lcall	_STA013WriteReg
	dec	sp
;	Drivers/driver_sta013.c:139: STA013WriteReg(11,3);
;	genIpush
	mov	a,#0x03
	push	acc
;	genCall
	mov	dpl,#0x0B
	lcall	_STA013WriteReg
	dec	sp
;	Drivers/driver_sta013.c:140: STA013WriteReg(STA_REG_PLLCTL_1,			161);
;	genIpush
	mov	a,#0xA1
	push	acc
;	genCall
	mov	dpl,#0x05
	lcall	_STA013WriteReg
	dec	sp
;	Drivers/driver_sta013.c:141: STA013WriteReg(STA_REG_PLLCTL_2,			12);
;	genIpush
	mov	a,#0x0C
	push	acc
;	genCall
	mov	dpl,#0x06
	lcall	_STA013WriteReg
	dec	sp
;	Drivers/driver_sta013.c:142: STA013WriteReg(STA_REG_PLLCTL_3,			00);
;	genIpush
;	Peephole 181	changed mov to clr
	clr	a
	push	acc
;	genCall
	mov	dpl,#0x07
	lcall	_STA013WriteReg
	dec	sp
;	Drivers/driver_sta013.c:143: STA013WriteReg(STA_REG_SCLK_POL,			0x00);	// SDI Changes when clock is low
;	genIpush
;	Peephole 181	changed mov to clr
	clr	a
	push	acc
;	genCall
	mov	dpl,#0x0D
	lcall	_STA013WriteReg
	dec	sp
;	Drivers/driver_sta013.c:144: STA013WriteReg(STA_REG_DATA_REQ_ENABLE,		0x04);
;	genIpush
	mov	a,#0x04
	push	acc
;	genCall
	mov	dpl,#0x18
	lcall	_STA013WriteReg
	dec	sp
;	Drivers/driver_sta013.c:145: STA013WriteReg(STA_REG_REQ_POL,             0x05);
;	genIpush
	mov	a,#0x05
	push	acc
;	genCall
	mov	dpl,#0x0C
	lcall	_STA013WriteReg
	dec	sp
;	Drivers/driver_sta013.c:154: STA013SetTone(0, 0, 0, 0);
;	genIpush
;	Peephole 181	changed mov to clr
	clr	a
	push	acc
	push	acc
;	genIpush
;	Peephole 181	changed mov to clr
	clr	a
	push	acc
;	genIpush
;	Peephole 181	changed mov to clr
	clr	a
	push	acc
	push	acc
;	genCall
	mov	dpl,#0x00
	lcall	_STA013SetTone
	mov	a,sp
	add	a,#0xfb
	mov	sp,a
;	Drivers/driver_sta013.c:157: STA013WriteReg(STA_REG_RUN,  0x01);
;	genIpush
	mov	a,#0x01
	push	acc
;	genCall
	mov	dpl,#0x72
	lcall	_STA013WriteReg
	dec	sp
;	Drivers/driver_sta013.c:158: STA013WriteReg(STA_REG_PLAY, 0x01);
;	genIpush
	mov	a,#0x01
	push	acc
;	genCall
	mov	dpl,#0x13
	lcall	_STA013WriteReg
	dec	sp
;	Drivers/driver_sta013.c:159: STA013WriteReg(STA_REG_MUTE, 0x00);
;	genIpush
;	Peephole 181	changed mov to clr
	clr	a
	push	acc
;	genCall
	mov	dpl,#0x14
	lcall	_STA013WriteReg
	dec	sp
;	Drivers/driver_sta013.c:161: STA013SetVolume(95,0);
;	genIpush
;	Peephole 181	changed mov to clr
	clr	a
	push	acc
;	genCall
	mov	dpl,#0x5F
	lcall	_STA013SetVolume
	dec	sp
;	Peephole 300	removed redundant label 00101$
	ret
;------------------------------------------------------------
;Allocation info for local variables in function 'STA013StopDecoder'
;------------------------------------------------------------
;------------------------------------------------------------
;	Drivers/driver_sta013.c:165: void STA013StopDecoder(void)
;	-----------------------------------------
;	 function STA013StopDecoder
;	-----------------------------------------
_STA013StopDecoder:
;	Drivers/driver_sta013.c:168: STA013WriteReg(STA_REG_MUTE, 0x01);
;	genIpush
	mov	a,#0x01
	push	acc
;	genCall
	mov	dpl,#0x14
	lcall	_STA013WriteReg
	dec	sp
;	Drivers/driver_sta013.c:171: STA013WriteReg(STA_REG_SOFT_RESET, 0x01);
;	genIpush
	mov	a,#0x01
	push	acc
;	genCall
	mov	dpl,#0x10
	lcall	_STA013WriteReg
	dec	sp
;	Drivers/driver_sta013.c:172: STA013WriteReg(STA_REG_SOFT_RESET, 0x00);
;	genIpush
;	Peephole 181	changed mov to clr
	clr	a
	push	acc
;	genCall
	mov	dpl,#0x10
	lcall	_STA013WriteReg
	dec	sp
;	Peephole 300	removed redundant label 00101$
	ret
;------------------------------------------------------------
;Allocation info for local variables in function 'STA013PauseDecoder'
;------------------------------------------------------------
;------------------------------------------------------------
;	Drivers/driver_sta013.c:176: void STA013PauseDecoder(void)
;	-----------------------------------------
;	 function STA013PauseDecoder
;	-----------------------------------------
_STA013PauseDecoder:
;	Drivers/driver_sta013.c:179: STA013WriteReg(STA_REG_MUTE, 0x01);
;	genIpush
	mov	a,#0x01
	push	acc
;	genCall
	mov	dpl,#0x14
	lcall	_STA013WriteReg
	dec	sp
;	Drivers/driver_sta013.c:181: STA013WriteReg(STA_REG_PLAY, 0x00);
;	genIpush
;	Peephole 181	changed mov to clr
	clr	a
	push	acc
;	genCall
	mov	dpl,#0x13
	lcall	_STA013WriteReg
	dec	sp
;	Peephole 300	removed redundant label 00101$
	ret
;------------------------------------------------------------
;Allocation info for local variables in function 'STA013ResumeDecoder'
;------------------------------------------------------------
;------------------------------------------------------------
;	Drivers/driver_sta013.c:185: void STA013ResumeDecoder(void)
;	-----------------------------------------
;	 function STA013ResumeDecoder
;	-----------------------------------------
_STA013ResumeDecoder:
;	Drivers/driver_sta013.c:188: STA013WriteReg(STA_REG_PLAY, 0x01);
;	genIpush
	mov	a,#0x01
	push	acc
;	genCall
	mov	dpl,#0x13
	lcall	_STA013WriteReg
	dec	sp
;	Drivers/driver_sta013.c:190: STA013WriteReg(STA_REG_MUTE, 0x00);
;	genIpush
;	Peephole 181	changed mov to clr
	clr	a
	push	acc
;	genCall
	mov	dpl,#0x14
	lcall	_STA013WriteReg
	dec	sp
;	Peephole 300	removed redundant label 00101$
	ret
;------------------------------------------------------------
;Allocation info for local variables in function 'STA013GetMP3Info'
;------------------------------------------------------------
;bitrate                   Allocated to registers r2 r3 
;sampFreq                  Allocated to registers r5 
;mode                      Allocated to registers r4 
;headL                     Allocated to registers r4 
;headM                     Allocated to registers r3 
;headH                     Allocated to registers r2 
;mpegID                    Allocated to registers r2 
;bitrateIndex              Allocated to registers 
;sampFreqIndex             Allocated to registers 
;------------------------------------------------------------
;	Drivers/driver_sta013.c:194: void STA013GetMP3Info()
;	-----------------------------------------
;	 function STA013GetMP3Info
;	-----------------------------------------
_STA013GetMP3Info:
;	Drivers/driver_sta013.c:203: headH = STA013ReadReg(STA_REG_HEAD_H);
;	genCall
	mov	dpl,#0x43
	lcall	_STA013ReadReg
	mov	r2,dpl
;	genAssign
;	Drivers/driver_sta013.c:204: headM = STA013ReadReg(STA_REG_HEAD_M);
;	genCall
	mov	dpl,#0x44
	push	ar2
	lcall	_STA013ReadReg
	mov	r3,dpl
	pop	ar2
;	genAssign
;	Drivers/driver_sta013.c:205: headL = STA013ReadReg(STA_REG_HEAD_L);
;	genCall
	mov	dpl,#0x45
	push	ar2
	push	ar3
	lcall	_STA013ReadReg
	mov	r4,dpl
	pop	ar3
	pop	ar2
;	genAssign
;	Drivers/driver_sta013.c:212: mpegID = (headH & 0x18)>>3;
;	genAnd
	anl	ar2,#0x18
;	genRightShift
;	genRightShiftLiteral
;	genrshOne
	mov	a,r2
	swap	a
	rl	a
	anl	a,#0x1f
	mov	r2,a
;	Drivers/driver_sta013.c:215: sampFreqIndex = ((headM & 0x0C)>>2) | (mpegID<<2);
;	genAnd
	mov	a,#0x0C
	anl	a,r3
;	genRightShift
;	genRightShiftLiteral
;	genrshOne
	mov	r5,a
;	Peephole 105	removed redundant mov
	rr	a
	rr	a
	anl	a,#0x3f
	mov	r5,a
;	genLeftShift
;	genLeftShiftLiteral
;	genlshOne
	mov	a,r2
;	Peephole 254	optimized left shift
	add	a,r2
	add	a,acc
;	genOr
	mov	r6,a
;	Peephole 105	removed redundant mov
	orl	ar5,a
;	Drivers/driver_sta013.c:218: bitrateIndex = ((headM & 0xF0)>>4) | ((mpegID & 0x01)<<4);
;	genAnd
	anl	ar3,#0xF0
;	genRightShift
;	genRightShiftLiteral
;	genrshOne
	mov	a,r3
	swap	a
	anl	a,#0x0f
	mov	r3,a
;	genAnd
	anl	ar2,#0x01
;	genLeftShift
;	genLeftShiftLiteral
;	genlshOne
	mov	a,r2
	swap	a
	anl	a,#0xf0
;	genOr
	mov	r2,a
;	Peephole 105	removed redundant mov
	orl	ar3,a
;	Drivers/driver_sta013.c:226: mode = (headL & 0xC0)>>6;
;	genAnd
	anl	ar4,#0xC0
;	genRightShift
;	genRightShiftLiteral
;	genrshOne
	mov	a,r4
	rl	a
	rl	a
	anl	a,#0x03
	mov	r4,a
;	Drivers/driver_sta013.c:228: bitrate =	2 * MP3_Bitrates[ bitrateIndex ];
;	genPlus
;	Peephole 236.g	used r3 instead of ar3
	mov	a,r3
;	Peephole 181	changed mov to clr
;	genPointerGet
;	genCodePointerGet
;	Peephole 186.d	optimized movc sequence
	mov	dptr,#_MP3_Bitrates
	movc	a,@a+dptr
;	genMult
;	genMultOneByte
	mov	r2,a
;	Peephole 105	removed redundant mov
	mov	b,#0x02
	mul	ab
	mov	r2,a
	mov	r3,b
;	Drivers/driver_sta013.c:229: sampFreq = MP3_SamplingFrequencies [sampFreqIndex ];
;	genPlus
;	Peephole 236.g	used r5 instead of ar5
	mov	a,r5
;	Peephole 181	changed mov to clr
;	genPointerGet
;	genCodePointerGet
;	Peephole 186.d	optimized movc sequence
	mov	dptr,#_MP3_SamplingFrequencies
	movc	a,@a+dptr
	mov	r5,a
;	genAssign
;	Drivers/driver_sta013.c:230: printf_tiny("\r\nMode = %d Sampling Freq = %d Bitrate = %d",mode,sampFreq,bitrate);
;	genCast
	mov	r6,#0x00
;	genCast
	mov	r7,#0x00
;	genIpush
	push	ar2
	push	ar3
;	genIpush
	push	ar5
	push	ar6
;	genIpush
	push	ar4
	push	ar7
;	genIpush
	mov	a,#__str_0
	push	acc
	mov	a,#(__str_0 >> 8)
	push	acc
;	genCall
	lcall	_printf_tiny
	mov	a,sp
	add	a,#0xf8
	mov	sp,a
;	Peephole 300	removed redundant label 00101$
	ret
;------------------------------------------------------------
;Allocation info for local variables in function 'STA013GetAverageBitrate'
;------------------------------------------------------------
;------------------------------------------------------------
;	Drivers/driver_sta013.c:254: unsigned int STA013GetAverageBitrate(void)
;	-----------------------------------------
;	 function STA013GetAverageBitrate
;	-----------------------------------------
_STA013GetAverageBitrate:
;	Drivers/driver_sta013.c:256: return (2 * STA013ReadReg(STA_REG_AVERAGE_BITRATE));
;	genCall
	mov	dpl,#0x6A
	lcall	_STA013ReadReg
	mov	a,dpl
;	genMult
;	genMultOneByte
	mov	b,#0x02
	mul	ab
	mov	dpl,a
	mov	dph,b
;	genRet
;	Peephole 300	removed redundant label 00101$
	ret
;------------------------------------------------------------
;Allocation info for local variables in function 'STA013SetVolume'
;------------------------------------------------------------
;balance                   Allocated to stack - offset -3
;volume                    Allocated to registers r2 
;attenL                    Allocated to registers r4 
;attenR                    Allocated to registers r3 
;------------------------------------------------------------
;	Drivers/driver_sta013.c:260: void STA013SetVolume(unsigned char volume, signed char balance)
;	-----------------------------------------
;	 function STA013SetVolume
;	-----------------------------------------
_STA013SetVolume:
	push	_bp
	mov	_bp,sp
;	genReceive
	mov	r2,dpl
;	Drivers/driver_sta013.c:269: if( balance > 0)
;	genCmpGt
	mov	r0,_bp
	dec	r0
	dec	r0
	dec	r0
;	genCmp
	clr	c
;	Peephole 159	avoided xrl during execution
	mov	a,#(0x00 ^ 0x80)
	mov	b,@r0
	xrl	b,#0x80
	subb	a,b
;	genIfxJump
;	Peephole 108.a	removed ljmp by inverse jump logic
	jnc	00102$
;	Peephole 300	removed redundant label 00107$
;	Drivers/driver_sta013.c:272: attenL = (100 - volume);
;	genMinus
	mov	a,#0x64
	clr	c
;	Peephole 236.l	used r2 instead of ar2
	subb	a,r2
	mov	r3,a
;	genAssign
	mov	ar4,r3
;	genAssign
;	Drivers/driver_sta013.c:273: attenR = (100 - volume) - (balance);
;	genMinus
	mov	r0,_bp
	dec	r0
	dec	r0
	dec	r0
	mov	a,r3
	clr	c
	subb	a,@r0
	mov	r3,a
;	genAssign
;	Peephole 112.b	changed ljmp to sjmp
	sjmp	00103$
00102$:
;	Drivers/driver_sta013.c:278: attenL = (100 - volume) + (balance);
;	genMinus
	mov	a,#0x64
	clr	c
;	Peephole 236.l	used r2 instead of ar2
	subb	a,r2
	mov	r2,a
;	genPlus
	mov	r0,_bp
	dec	r0
	dec	r0
	dec	r0
	mov	a,@r0
;	Peephole 236.a	used r2 instead of ar2
	add	a,r2
	mov	r5,a
;	genAssign
	mov	ar4,r5
;	Drivers/driver_sta013.c:279: attenR = (100 - volume);
;	genAssign
;	genAssign
	mov	ar3,r2
00103$:
;	Drivers/driver_sta013.c:282: attenL = MIN(attenL,MAX_VOLUME_ATTENUATION);
;	genCast
;	peephole 177.h	optimized mov sequence
	mov	a,r4
;	Peephole 236.i	used r2 instead of ar2
	mov	r2,a
	rlc	a
	subb	a,acc
	mov	r5,a
;	genIpush
	push	ar3
	mov	a,#0x60
	push	acc
;	Peephole 181	changed mov to clr
	clr	a
	push	acc
;	genCall
	mov	dpl,r2
	mov	dph,r5
	lcall	_MIN
	mov	r2,dpl
	mov	r5,dph
	dec	sp
	dec	sp
	pop	ar3
;	genCast
	mov	ar4,r2
;	Drivers/driver_sta013.c:283: attenL = MAX(attenL,MIN_VOLUME_ATTENUATION);
;	genCast
;	peephole 177.h	optimized mov sequence
	mov	a,r4
;	Peephole 236.i	used r2 instead of ar2
	mov	r2,a
	rlc	a
	subb	a,acc
	mov	r5,a
;	genIpush
	push	ar3
;	Peephole 181	changed mov to clr
	clr	a
	push	acc
	push	acc
;	genCall
	mov	dpl,r2
	mov	dph,r5
	lcall	_MAX
	mov	r2,dpl
	mov	r5,dph
	dec	sp
	dec	sp
	pop	ar3
;	genCast
	mov	ar4,r2
;	Drivers/driver_sta013.c:284: attenR = MIN(attenR,MAX_VOLUME_ATTENUATION);
;	genCast
;	peephole 177.h	optimized mov sequence
	mov	a,r3
;	Peephole 236.i	used r2 instead of ar2
	mov	r2,a
	rlc	a
	subb	a,acc
	mov	r5,a
;	genIpush
	push	ar4
	mov	a,#0x60
	push	acc
;	Peephole 181	changed mov to clr
	clr	a
	push	acc
;	genCall
	mov	dpl,r2
	mov	dph,r5
	lcall	_MIN
	mov	r2,dpl
	mov	r5,dph
	dec	sp
	dec	sp
	pop	ar4
;	genCast
	mov	ar3,r2
;	Drivers/driver_sta013.c:285: attenR = MAX(attenR,MIN_VOLUME_ATTENUATION);
;	genCast
;	peephole 177.h	optimized mov sequence
	mov	a,r3
;	Peephole 236.i	used r2 instead of ar2
	mov	r2,a
	rlc	a
	subb	a,acc
	mov	r5,a
;	genIpush
	push	ar4
;	Peephole 181	changed mov to clr
	clr	a
	push	acc
	push	acc
;	genCall
	mov	dpl,r2
	mov	dph,r5
	lcall	_MAX
	mov	r2,dpl
	mov	r5,dph
	dec	sp
	dec	sp
	pop	ar4
;	genCast
	mov	ar3,r2
;	Drivers/driver_sta013.c:288: STA013WriteReg(STA_REG_DLA, attenL);
;	genIpush
	push	ar3
	push	ar4
;	genCall
	mov	dpl,#0x46
	lcall	_STA013WriteReg
	dec	sp
	pop	ar3
;	Drivers/driver_sta013.c:289: STA013WriteReg(STA_REG_DLB, MAX_VOLUME_ATTENUATION);
;	genIpush
	push	ar3
	mov	a,#0x60
	push	acc
;	genCall
	mov	dpl,#0x47
	lcall	_STA013WriteReg
	dec	sp
	pop	ar3
;	Drivers/driver_sta013.c:290: STA013WriteReg(STA_REG_DRA, attenR);
;	genIpush
	push	ar3
;	genCall
	mov	dpl,#0x48
	lcall	_STA013WriteReg
	dec	sp
;	Drivers/driver_sta013.c:291: STA013WriteReg(STA_REG_DRB, MAX_VOLUME_ATTENUATION);
;	genIpush
	mov	a,#0x60
	push	acc
;	genCall
	mov	dpl,#0x49
	lcall	_STA013WriteReg
	dec	sp
;	Peephole 300	removed redundant label 00104$
	pop	_bp
	ret
;------------------------------------------------------------
;Allocation info for local variables in function 'STA013SetTone'
;------------------------------------------------------------
;bassFreq                  Allocated to stack - offset -4
;trebleEnh                 Allocated to stack - offset -5
;trebleFreq                Allocated to stack - offset -7
;bassEnh                   Allocated to registers r2 
;------------------------------------------------------------
;	Drivers/driver_sta013.c:295: void STA013SetTone(signed char bassEnh, unsigned int bassFreq, signed char trebleEnh, unsigned int trebleFreq)
;	-----------------------------------------
;	 function STA013SetTone
;	-----------------------------------------
_STA013SetTone:
	push	_bp
	mov	_bp,sp
;	genReceive
	mov	r2,dpl
;	Drivers/driver_sta013.c:298: STA013WriteReg(STA_REG_BASS_FREQUENCY_LOW,  (bassFreq   ) & 0xFF );
;	genAnd
	mov	a,_bp
	add	a,#0xfffffffc
	mov	r0,a
	mov	ar3,@r0
	mov	r4,#0x00
;	genCast
;	genIpush
	push	ar2
	push	ar3
;	genCall
	mov	dpl,#0x79
	lcall	_STA013WriteReg
	dec	sp
	pop	ar2
;	Drivers/driver_sta013.c:299: STA013WriteReg(STA_REG_BASS_FREQUENCY_HIGH, (bassFreq>>8) & 0xFF );
;	genGetByte
	mov	a,_bp
	add	a,#0xfffffffc
;	Peephole 185	changed order of increment (acc incremented also!)
	inc	a
	mov	r0,a
	mov	ar3,@r0
;	genIpush
	push	ar2
	push	ar3
;	genCall
	mov	dpl,#0x7A
	lcall	_STA013WriteReg
	dec	sp
	pop	ar2
;	Drivers/driver_sta013.c:301: bassEnh = MIN(bassEnh,MAX_BASS_ENHANCE);
;	genCast
;	peephole 177.h	optimized mov sequence
	mov	a,r2
;	Peephole 236.i	used r3 instead of ar3
	mov	r3,a
	rlc	a
	subb	a,acc
	mov	r4,a
;	genIpush
	mov	a,#0x0C
	push	acc
;	Peephole 181	changed mov to clr
	clr	a
	push	acc
;	genCall
	mov	dpl,r3
	mov	dph,r4
	lcall	_MIN
	mov	r3,dpl
	mov	r4,dph
	dec	sp
	dec	sp
;	genCast
	mov	ar2,r3
;	Drivers/driver_sta013.c:302: bassEnh = MAX(bassEnh,MIN_BASS_ENHANCE);
;	genCast
;	peephole 177.h	optimized mov sequence
	mov	a,r2
;	Peephole 236.i	used r3 instead of ar3
	mov	r3,a
	rlc	a
	subb	a,acc
	mov	r4,a
;	genIpush
	mov	a,#0xF4
	push	acc
	mov	a,#0xFF
	push	acc
;	genCall
	mov	dpl,r3
	mov	dph,r4
	lcall	_MAX
	mov	r3,dpl
	mov	r4,dph
	dec	sp
	dec	sp
;	genCast
	mov	ar2,r3
;	Drivers/driver_sta013.c:303: STA013WriteReg(STA_REG_BASS_ENHANCE, bassEnh);
;	genIpush
	push	ar2
	push	ar2
;	genCall
	mov	dpl,#0x7C
	lcall	_STA013WriteReg
	dec	sp
	pop	ar2
;	Drivers/driver_sta013.c:306: STA013WriteReg(STA_REG_TREBLE_FREQUENCY_LOW,  (trebleFreq   ) & 0xFF );
;	genAnd
	mov	a,_bp
	add	a,#0xfffffff9
	mov	r0,a
	mov	ar3,@r0
	mov	r4,#0x00
;	genCast
;	genIpush
	push	ar2
	push	ar3
;	genCall
	mov	dpl,#0x77
	lcall	_STA013WriteReg
	dec	sp
	pop	ar2
;	Drivers/driver_sta013.c:307: STA013WriteReg(STA_REG_TREBLE_FREQUENCY_HIGH, (trebleFreq>>8) & 0xFF );
;	genGetByte
	mov	a,_bp
	add	a,#0xfffffff9
;	Peephole 185	changed order of increment (acc incremented also!)
	inc	a
	mov	r0,a
	mov	ar3,@r0
;	genIpush
	push	ar2
	push	ar3
;	genCall
	mov	dpl,#0x78
	lcall	_STA013WriteReg
	dec	sp
	pop	ar2
;	Drivers/driver_sta013.c:309: trebleEnh = MIN(trebleEnh,MAX_TREBLE_ENHANCE);
;	genCast
	mov	a,_bp
	add	a,#0xfffffffb
	mov	r0,a
	mov	ar3,@r0
	mov	a,@r0
	rlc	a
	subb	a,acc
	mov	r4,a
;	genIpush
	push	ar2
	mov	a,#0x0C
	push	acc
;	Peephole 181	changed mov to clr
	clr	a
	push	acc
;	genCall
	mov	dpl,r3
	mov	dph,r4
	lcall	_MIN
	mov	r3,dpl
	mov	r4,dph
	dec	sp
	dec	sp
	pop	ar2
;	genCast
;	Drivers/driver_sta013.c:310: trebleEnh = MAX(trebleEnh,MIN_TREBLE_ENHANCE);
;	genCast
	mov	a,r3
	rlc	a
	subb	a,acc
	mov	r4,a
;	genIpush
	push	ar2
	mov	a,#0xF4
	push	acc
	mov	a,#0xFF
	push	acc
;	genCall
	mov	dpl,r3
	mov	dph,r4
	lcall	_MAX
	mov	r3,dpl
	mov	r4,dph
	dec	sp
	dec	sp
	pop	ar2
;	genCast
;	Drivers/driver_sta013.c:311: STA013WriteReg(STA_REG_TREBLE_ENHANCE, trebleEnh);
;	genAssign
	mov	ar4,r3
;	genIpush
	push	ar2
	push	ar3
	push	ar4
;	genCall
	mov	dpl,#0x7B
	lcall	_STA013WriteReg
	dec	sp
	pop	ar3
	pop	ar2
;	Drivers/driver_sta013.c:314: STA013WriteReg( STA_REG_TONE_ATTEN, MAX(bassEnh,trebleEnh) );
;	genCast
	mov	a,r3
	rlc	a
	subb	a,acc
	mov	r4,a
;	genCast
	mov	a,r2
	rlc	a
	subb	a,acc
	mov	r5,a
;	genIpush
	push	ar2
	push	ar5
;	genCall
	mov	dpl,r3
	mov	dph,r4
	lcall	_MAX
	mov	r2,dpl
	mov	r3,dph
	dec	sp
	dec	sp
;	genCast
;	genIpush
	push	ar2
;	genCall
	mov	dpl,#0x7D
	lcall	_STA013WriteReg
	dec	sp
;	Peephole 300	removed redundant label 00101$
	pop	_bp
	ret
	.area CSEG    (CODE)
	.area CONST   (CODE)
_STA013_Patch:
	.db #0x3A
	.db #0x01
	.db #0x2A
	.db #0x04
	.db #0x28
	.db #0x00
	.db #0x29
	.db #0x00
	.db #0x20
	.db #0x00
	.db #0x21
	.db #0x00
	.db #0x22
	.db #0x00
	.db #0x23
	.db #0x00
	.db #0x24
	.db #0x00
	.db #0x25
	.db #0x00
	.db #0x26
	.db #0x00
	.db #0x27
	.db #0x00
	.db #0x28
	.db #0x01
	.db #0x28
	.db #0x02
	.db #0x21
	.db #0x8F
	.db #0x28
	.db #0x03
	.db #0x21
	.db #0x00
	.db #0x28
	.db #0x04
	.db #0x28
	.db #0x05
	.db #0x28
	.db #0x06
	.db #0x28
	.db #0x07
	.db #0x28
	.db #0x08
	.db #0x28
	.db #0x09
	.db #0x28
	.db #0x0A
	.db #0x28
	.db #0x0B
	.db #0x28
	.db #0x0C
	.db #0x20
	.db #0x80
	.db #0x21
	.db #0x90
	.db #0x28
	.db #0x0D
	.db #0x20
	.db #0x00
	.db #0x21
	.db #0x00
	.db #0x28
	.db #0x0E
	.db #0x20
	.db #0x81
	.db #0x21
	.db #0x91
	.db #0x28
	.db #0x0F
	.db #0x20
	.db #0x00
	.db #0x21
	.db #0x92
	.db #0x28
	.db #0x10
	.db #0x21
	.db #0x00
	.db #0x28
	.db #0x11
	.db #0x21
	.db #0x93
	.db #0x28
	.db #0x12
	.db #0x21
	.db #0x00
	.db #0x28
	.db #0x13
	.db #0x28
	.db #0x14
	.db #0x28
	.db #0x15
	.db #0x20
	.db #0x82
	.db #0x28
	.db #0x16
	.db #0x20
	.db #0x00
	.db #0x28
	.db #0x17
	.db #0x28
	.db #0x18
	.db #0x28
	.db #0x19
	.db #0x21
	.db #0x94
	.db #0x28
	.db #0x1A
	.db #0x21
	.db #0x95
	.db #0x28
	.db #0x1B
	.db #0x21
	.db #0x96
	.db #0x28
	.db #0x1C
	.db #0x21
	.db #0x00
	.db #0x28
	.db #0x1D
	.db #0x20
	.db #0x83
	.db #0x28
	.db #0x1E
	.db #0x20
	.db #0x00
	.db #0x28
	.db #0x1F
	.db #0x21
	.db #0x97
	.db #0x28
	.db #0x20
	.db #0x21
	.db #0x00
	.db #0x28
	.db #0x21
	.db #0x28
	.db #0x22
	.db #0x28
	.db #0x23
	.db #0x28
	.db #0x24
	.db #0x28
	.db #0x25
	.db #0x28
	.db #0x26
	.db #0x28
	.db #0x27
	.db #0x28
	.db #0x28
	.db #0x28
	.db #0x29
	.db #0x28
	.db #0x2A
	.db #0x20
	.db #0x84
	.db #0x28
	.db #0x2B
	.db #0x20
	.db #0x00
	.db #0x28
	.db #0x2C
	.db #0x28
	.db #0x2D
	.db #0x28
	.db #0x2E
	.db #0x28
	.db #0x2F
	.db #0x28
	.db #0x30
	.db #0x28
	.db #0x31
	.db #0x28
	.db #0x32
	.db #0x20
	.db #0x85
	.db #0x28
	.db #0x33
	.db #0x20
	.db #0x00
	.db #0x28
	.db #0x34
	.db #0x28
	.db #0x35
	.db #0x28
	.db #0x36
	.db #0x28
	.db #0x37
	.db #0x21
	.db #0x98
	.db #0x28
	.db #0x38
	.db #0x21
	.db #0x00
	.db #0x28
	.db #0x39
	.db #0x28
	.db #0x3A
	.db #0x28
	.db #0x3B
	.db #0x28
	.db #0x3C
	.db #0x28
	.db #0x3D
	.db #0x28
	.db #0x3E
	.db #0x28
	.db #0x3F
	.db #0x28
	.db #0x40
	.db #0x28
	.db #0x41
	.db #0x28
	.db #0x42
	.db #0x28
	.db #0x43
	.db #0x28
	.db #0x44
	.db #0x28
	.db #0x45
	.db #0x28
	.db #0x46
	.db #0x28
	.db #0x47
	.db #0x28
	.db #0x48
	.db #0x28
	.db #0x49
	.db #0x28
	.db #0x4A
	.db #0x28
	.db #0x4B
	.db #0x28
	.db #0x4C
	.db #0x28
	.db #0x4D
	.db #0x28
	.db #0x4E
	.db #0x28
	.db #0x4F
	.db #0x28
	.db #0x50
	.db #0x28
	.db #0x51
	.db #0x28
	.db #0x52
	.db #0x28
	.db #0x53
	.db #0x28
	.db #0x54
	.db #0x28
	.db #0x55
	.db #0x28
	.db #0x56
	.db #0x28
	.db #0x57
	.db #0x28
	.db #0x58
	.db #0x28
	.db #0x59
	.db #0x28
	.db #0x5A
	.db #0x28
	.db #0x5B
	.db #0x28
	.db #0x5C
	.db #0x28
	.db #0x5D
	.db #0x28
	.db #0x5E
	.db #0x28
	.db #0x5F
	.db #0x28
	.db #0x60
	.db #0x28
	.db #0x61
	.db #0x28
	.db #0x62
	.db #0x21
	.db #0x99
	.db #0x28
	.db #0x63
	.db #0x21
	.db #0x00
	.db #0x28
	.db #0x64
	.db #0x28
	.db #0x65
	.db #0x28
	.db #0x66
	.db #0x28
	.db #0x67
	.db #0x28
	.db #0x68
	.db #0x28
	.db #0x69
	.db #0x28
	.db #0x6A
	.db #0x28
	.db #0x6B
	.db #0x28
	.db #0x6C
	.db #0x28
	.db #0x6D
	.db #0x28
	.db #0x6E
	.db #0x28
	.db #0x6F
	.db #0x28
	.db #0x70
	.db #0x28
	.db #0x71
	.db #0x28
	.db #0x72
	.db #0x28
	.db #0x73
	.db #0x28
	.db #0x74
	.db #0x28
	.db #0x75
	.db #0x28
	.db #0x76
	.db #0x28
	.db #0x77
	.db #0x28
	.db #0x78
	.db #0x28
	.db #0x79
	.db #0x28
	.db #0x7A
	.db #0x28
	.db #0x7B
	.db #0x28
	.db #0x7C
	.db #0x28
	.db #0x7D
	.db #0x28
	.db #0x7E
	.db #0x28
	.db #0x7F
	.db #0x28
	.db #0x80
	.db #0x28
	.db #0x81
	.db #0x28
	.db #0x82
	.db #0x28
	.db #0x83
	.db #0x28
	.db #0x84
	.db #0x28
	.db #0x85
	.db #0x28
	.db #0x86
	.db #0x28
	.db #0x87
	.db #0x28
	.db #0x88
	.db #0x28
	.db #0x89
	.db #0x28
	.db #0x8A
	.db #0x28
	.db #0x8B
	.db #0x28
	.db #0x8C
	.db #0x28
	.db #0x8D
	.db #0x28
	.db #0x8E
	.db #0x28
	.db #0x8F
	.db #0x28
	.db #0x90
	.db #0x28
	.db #0x91
	.db #0x20
	.db #0x86
	.db #0x28
	.db #0x92
	.db #0x20
	.db #0x87
	.db #0x28
	.db #0x93
	.db #0x20
	.db #0x00
	.db #0x28
	.db #0x94
	.db #0x28
	.db #0x95
	.db #0x28
	.db #0x96
	.db #0x28
	.db #0x97
	.db #0x28
	.db #0x98
	.db #0x28
	.db #0x99
	.db #0x28
	.db #0x9A
	.db #0x28
	.db #0x9B
	.db #0x28
	.db #0x9C
	.db #0x28
	.db #0x9D
	.db #0x28
	.db #0x9E
	.db #0x28
	.db #0x9F
	.db #0x21
	.db #0x9A
	.db #0x28
	.db #0xA0
	.db #0x21
	.db #0x00
	.db #0x28
	.db #0xA1
	.db #0x28
	.db #0xA2
	.db #0x28
	.db #0xA3
	.db #0x28
	.db #0xA4
	.db #0x28
	.db #0xA5
	.db #0x28
	.db #0xA6
	.db #0x28
	.db #0xA7
	.db #0x28
	.db #0xA8
	.db #0x28
	.db #0xA9
	.db #0x28
	.db #0xAA
	.db #0x28
	.db #0xAB
	.db #0x28
	.db #0xAC
	.db #0x28
	.db #0xAD
	.db #0x28
	.db #0xAE
	.db #0x28
	.db #0xAF
	.db #0x28
	.db #0xB0
	.db #0x28
	.db #0xB1
	.db #0x28
	.db #0xB2
	.db #0x28
	.db #0xB3
	.db #0x28
	.db #0xB4
	.db #0x28
	.db #0xB5
	.db #0x28
	.db #0xB6
	.db #0x28
	.db #0xB7
	.db #0x28
	.db #0xB8
	.db #0x28
	.db #0xB9
	.db #0x20
	.db #0x88
	.db #0x28
	.db #0xBA
	.db #0x20
	.db #0x00
	.db #0x28
	.db #0xBB
	.db #0x20
	.db #0x89
	.db #0x28
	.db #0xBC
	.db #0x20
	.db #0x00
	.db #0x28
	.db #0xBD
	.db #0x28
	.db #0xBE
	.db #0x28
	.db #0xBF
	.db #0x28
	.db #0xC0
	.db #0x28
	.db #0xC1
	.db #0x28
	.db #0xC2
	.db #0x28
	.db #0xC3
	.db #0x21
	.db #0x9B
	.db #0x28
	.db #0xC4
	.db #0x21
	.db #0x00
	.db #0x28
	.db #0xC5
	.db #0x28
	.db #0xC6
	.db #0x28
	.db #0xC7
	.db #0x28
	.db #0xC8
	.db #0x28
	.db #0xC9
	.db #0x28
	.db #0xCA
	.db #0x28
	.db #0xCB
	.db #0x28
	.db #0xCC
	.db #0x28
	.db #0xCD
	.db #0x28
	.db #0xCE
	.db #0x28
	.db #0xCF
	.db #0x28
	.db #0xD0
	.db #0x28
	.db #0xD1
	.db #0x28
	.db #0xD2
	.db #0x28
	.db #0xD3
	.db #0x28
	.db #0xD4
	.db #0x28
	.db #0xD5
	.db #0x28
	.db #0xD6
	.db #0x28
	.db #0xD7
	.db #0x28
	.db #0xD8
	.db #0x28
	.db #0xD9
	.db #0x28
	.db #0xDA
	.db #0x28
	.db #0xDB
	.db #0x28
	.db #0xDC
	.db #0x28
	.db #0xDD
	.db #0x28
	.db #0xDE
	.db #0x28
	.db #0xDF
	.db #0x28
	.db #0xE0
	.db #0x28
	.db #0xE1
	.db #0x20
	.db #0x8A
	.db #0x28
	.db #0xE2
	.db #0x20
	.db #0x8B
	.db #0x28
	.db #0xE3
	.db #0x20
	.db #0x00
	.db #0x28
	.db #0xE4
	.db #0x28
	.db #0xE5
	.db #0x28
	.db #0xE6
	.db #0x28
	.db #0xE7
	.db #0x28
	.db #0xE8
	.db #0x28
	.db #0xE9
	.db #0x28
	.db #0xEA
	.db #0x28
	.db #0xEB
	.db #0x28
	.db #0xEC
	.db #0x28
	.db #0xED
	.db #0x28
	.db #0xEE
	.db #0x28
	.db #0xEF
	.db #0x28
	.db #0xF0
	.db #0x28
	.db #0xF1
	.db #0x28
	.db #0xF2
	.db #0x28
	.db #0xF3
	.db #0x28
	.db #0xF4
	.db #0x28
	.db #0xF5
	.db #0x28
	.db #0xF6
	.db #0x28
	.db #0xF7
	.db #0x28
	.db #0xF8
	.db #0x20
	.db #0x8C
	.db #0x28
	.db #0xF9
	.db #0x20
	.db #0x00
	.db #0x21
	.db #0x9C
	.db #0x28
	.db #0xFA
	.db #0x21
	.db #0x9D
	.db #0x28
	.db #0xFB
	.db #0x20
	.db #0x8D
	.db #0x21
	.db #0x9E
	.db #0x28
	.db #0xFC
	.db #0x20
	.db #0x8E
	.db #0x21
	.db #0x9F
	.db #0x28
	.db #0xFD
	.db #0x20
	.db #0x00
	.db #0x21
	.db #0x00
	.db #0x28
	.db #0xFE
	.db #0x28
	.db #0xFF
	.db #0x2A
	.db #0x01
	.db #0x28
	.db #0x00
	.db #0x22
	.db #0x01
	.db #0x23
	.db #0x95
	.db #0x24
	.db #0x89
	.db #0x25
	.db #0x07
	.db #0x26
	.db #0xA4
	.db #0x27
	.db #0x07
	.db #0x28
	.db #0x01
	.db #0x21
	.db #0xC7
	.db #0x22
	.db #0x00
	.db #0x23
	.db #0x80
	.db #0x26
	.db #0xC4
	.db #0x27
	.db #0x0C
	.db #0x28
	.db #0x02
	.db #0x20
	.db #0x09
	.db #0x21
	.db #0x1C
	.db #0x22
	.db #0x04
	.db #0x26
	.db #0xAA
	.db #0x27
	.db #0x0A
	.db #0x28
	.db #0x03
	.db #0x20
	.db #0x00
	.db #0x21
	.db #0x00
	.db #0x22
	.db #0x00
	.db #0x23
	.db #0xA6
	.db #0x26
	.db #0xA0
	.db #0x27
	.db #0x07
	.db #0x28
	.db #0x04
	.db #0x28
	.db #0x05
	.db #0x20
	.db #0x05
	.db #0x23
	.db #0x84
	.db #0x26
	.db #0xB4
	.db #0x27
	.db #0x09
	.db #0x28
	.db #0x06
	.db #0x20
	.db #0x00
	.db #0x22
	.db #0x03
	.db #0x23
	.db #0x00
	.db #0x24
	.db #0x81
	.db #0x25
	.db #0xC0
	.db #0x26
	.db #0xAB
	.db #0x27
	.db #0x0A
	.db #0x28
	.db #0x07
	.db #0x21
	.db #0xAE
	.db #0x22
	.db #0x00
	.db #0x23
	.db #0x95
	.db #0x24
	.db #0x89
	.db #0x25
	.db #0x07
	.db #0x26
	.db #0xA4
	.db #0x27
	.db #0x00
	.db #0x28
	.db #0x08
	.db #0x21
	.db #0x48
	.db #0x22
	.db #0x01
	.db #0x23
	.db #0x80
	.db #0x26
	.db #0xC4
	.db #0x27
	.db #0x0C
	.db #0x28
	.db #0x09
	.db #0x20
	.db #0x09
	.db #0x21
	.db #0x04
	.db #0x22
	.db #0x04
	.db #0x26
	.db #0xAA
	.db #0x27
	.db #0x0A
	.db #0x28
	.db #0x0A
	.db #0x20
	.db #0x00
	.db #0x21
	.db #0x00
	.db #0x22
	.db #0x00
	.db #0x23
	.db #0xA8
	.db #0x26
	.db #0xA4
	.db #0x27
	.db #0x07
	.db #0x28
	.db #0x0B
	.db #0x28
	.db #0x0C
	.db #0x21
	.db #0x40
	.db #0x22
	.db #0x20
	.db #0x23
	.db #0x80
	.db #0x26
	.db #0xC4
	.db #0x27
	.db #0x0C
	.db #0x28
	.db #0x0D
	.db #0x22
	.db #0x24
	.db #0x26
	.db #0xC6
	.db #0x28
	.db #0x0E
	.db #0x21
	.db #0x9E
	.db #0x22
	.db #0x00
	.db #0x26
	.db #0xC8
	.db #0x28
	.db #0x0F
	.db #0x20
	.db #0x09
	.db #0x21
	.db #0x02
	.db #0x22
	.db #0x14
	.db #0x26
	.db #0xAA
	.db #0x27
	.db #0x0A
	.db #0x28
	.db #0x10
	.db #0x20
	.db #0x05
	.db #0x21
	.db #0x00
	.db #0x22
	.db #0x00
	.db #0x23
	.db #0x84
	.db #0x26
	.db #0xB4
	.db #0x27
	.db #0x09
	.db #0x28
	.db #0x11
	.db #0x20
	.db #0x00
	.db #0x21
	.db #0x01
	.db #0x23
	.db #0x00
	.db #0x24
	.db #0x01
	.db #0x25
	.db #0xC0
	.db #0x26
	.db #0xAB
	.db #0x27
	.db #0x0A
	.db #0x28
	.db #0x12
	.db #0x21
	.db #0xC3
	.db #0x23
	.db #0x95
	.db #0x24
	.db #0x89
	.db #0x25
	.db #0x07
	.db #0x26
	.db #0x20
	.db #0x27
	.db #0x00
	.db #0x28
	.db #0x13
	.db #0x20
	.db #0x03
	.db #0x21
	.db #0xC2
	.db #0x23
	.db #0x83
	.db #0x26
	.db #0x26
	.db #0x27
	.db #0x0D
	.db #0x28
	.db #0x14
	.db #0x21
	.db #0xB3
	.db #0x22
	.db #0x08
	.db #0x28
	.db #0x15
	.db #0x20
	.db #0x00
	.db #0x21
	.db #0xC6
	.db #0x22
	.db #0x00
	.db #0x23
	.db #0x95
	.db #0x26
	.db #0x00
	.db #0x27
	.db #0x08
	.db #0x28
	.db #0x16
	.db #0x21
	.db #0x00
	.db #0x23
	.db #0x00
	.db #0x24
	.db #0x96
	.db #0x25
	.db #0x03
	.db #0x26
	.db #0xAA
	.db #0x27
	.db #0x0A
	.db #0x28
	.db #0x17
	.db #0x20
	.db #0x42
	.db #0x21
	.db #0xB6
	.db #0x23
	.db #0x80
	.db #0x24
	.db #0x89
	.db #0x25
	.db #0x07
	.db #0x28
	.db #0x18
	.db #0x20
	.db #0x00
	.db #0x21
	.db #0x00
	.db #0x23
	.db #0x94
	.db #0x26
	.db #0x0E
	.db #0x28
	.db #0x19
	.db #0x20
	.db #0x0F
	.db #0x23
	.db #0x84
	.db #0x26
	.db #0xB4
	.db #0x27
	.db #0x09
	.db #0x28
	.db #0x1A
	.db #0x20
	.db #0x00
	.db #0x23
	.db #0x93
	.db #0x26
	.db #0xA8
	.db #0x27
	.db #0x03
	.db #0x28
	.db #0x1B
	.db #0x26
	.db #0x28
	.db #0x27
	.db #0x00
	.db #0x28
	.db #0x1C
	.db #0x21
	.db #0x01
	.db #0x23
	.db #0x00
	.db #0x24
	.db #0x01
	.db #0x25
	.db #0xC0
	.db #0x26
	.db #0xAB
	.db #0x27
	.db #0x0A
	.db #0x28
	.db #0x1D
	.db #0x21
	.db #0xC5
	.db #0x23
	.db #0x95
	.db #0x24
	.db #0x89
	.db #0x25
	.db #0x07
	.db #0x26
	.db #0x20
	.db #0x27
	.db #0x00
	.db #0x28
	.db #0x1E
	.db #0x21
	.db #0x00
	.db #0x23
	.db #0x94
	.db #0x26
	.db #0x00
	.db #0x27
	.db #0x0A
	.db #0x28
	.db #0x1F
	.db #0x26
	.db #0x0E
	.db #0x28
	.db #0x20
	.db #0x20
	.db #0x03
	.db #0x21
	.db #0x79
	.db #0x22
	.db #0x01
	.db #0x23
	.db #0x83
	.db #0x26
	.db #0x26
	.db #0x27
	.db #0x0D
	.db #0x28
	.db #0x21
	.db #0x21
	.db #0x32
	.db #0x28
	.db #0x22
	.db #0x20
	.db #0x00
	.db #0x21
	.db #0x04
	.db #0x22
	.db #0x00
	.db #0x23
	.db #0x80
	.db #0x24
	.db #0x00
	.db #0x25
	.db #0xFC
	.db #0x26
	.db #0xAA
	.db #0x27
	.db #0x0A
	.db #0x28
	.db #0x23
	.db #0x21
	.db #0x00
	.db #0x23
	.db #0x00
	.db #0x25
	.db #0x00
	.db #0x28
	.db #0x24
	.db #0x21
	.db #0xA3
	.db #0x22
	.db #0x0D
	.db #0x23
	.db #0x80
	.db #0x24
	.db #0x9E
	.db #0x25
	.db #0x3B
	.db #0x28
	.db #0x25
	.db #0x20
	.db #0x42
	.db #0x21
	.db #0x57
	.db #0x22
	.db #0x01
	.db #0x24
	.db #0x89
	.db #0x25
	.db #0x07
	.db #0x28
	.db #0x26
	.db #0x20
	.db #0x00
	.db #0x21
	.db #0x43
	.db #0x22
	.db #0x0D
	.db #0x24
	.db #0x00
	.db #0x25
	.db #0x38
	.db #0x28
	.db #0x27
	.db #0x21
	.db #0x08
	.db #0x22
	.db #0x98
	.db #0x23
	.db #0x95
	.db #0x24
	.db #0x89
	.db #0x25
	.db #0x07
	.db #0x26
	.db #0x24
	.db #0x27
	.db #0x00
	.db #0x28
	.db #0x28
	.db #0x20
	.db #0x42
	.db #0x21
	.db #0x93
	.db #0x22
	.db #0x01
	.db #0x23
	.db #0x80
	.db #0x26
	.db #0xAA
	.db #0x27
	.db #0x0A
	.db #0x28
	.db #0x29
	.db #0x20
	.db #0x03
	.db #0x21
	.db #0x7E
	.db #0x22
	.db #0x04
	.db #0x23
	.db #0x83
	.db #0x26
	.db #0x26
	.db #0x27
	.db #0x0D
	.db #0x28
	.db #0x2A
	.db #0x20
	.db #0x00
	.db #0x21
	.db #0xB0
	.db #0x22
	.db #0x00
	.db #0x23
	.db #0x95
	.db #0x26
	.db #0xA0
	.db #0x27
	.db #0x07
	.db #0x28
	.db #0x2B
	.db #0x21
	.db #0x00
	.db #0x23
	.db #0x00
	.db #0x24
	.db #0x0C
	.db #0x25
	.db #0x04
	.db #0x26
	.db #0xAA
	.db #0x27
	.db #0x0A
	.db #0x28
	.db #0x2C
	.db #0x21
	.db #0x02
	.db #0x23
	.db #0x80
	.db #0x24
	.db #0x86
	.db #0x25
	.db #0xC3
	.db #0x26
	.db #0xAB
	.db #0x28
	.db #0x2D
	.db #0x20
	.db #0x42
	.db #0x21
	.db #0x97
	.db #0x22
	.db #0x01
	.db #0x24
	.db #0x89
	.db #0x25
	.db #0x07
	.db #0x26
	.db #0xAA
	.db #0x28
	.db #0x2E
	.db #0x20
	.db #0x00
	.db #0x21
	.db #0x00
	.db #0x22
	.db #0x00
	.db #0x24
	.db #0x1F
	.db #0x25
	.db #0x04
	.db #0x28
	.db #0x2F
	.db #0x21
	.db #0xB2
	.db #0x23
	.db #0x95
	.db #0x24
	.db #0x89
	.db #0x25
	.db #0x07
	.db #0x26
	.db #0x20
	.db #0x27
	.db #0x04
	.db #0x28
	.db #0x30
	.db #0x20
	.db #0x42
	.db #0x21
	.db #0x8B
	.db #0x22
	.db #0x04
	.db #0x23
	.db #0x80
	.db #0x26
	.db #0xAA
	.db #0x27
	.db #0x0A
	.db #0x28
	.db #0x31
	.db #0x20
	.db #0x00
	.db #0x21
	.db #0xB1
	.db #0x22
	.db #0x00
	.db #0x23
	.db #0x95
	.db #0x26
	.db #0xA0
	.db #0x27
	.db #0x07
	.db #0x28
	.db #0x32
	.db #0x20
	.db #0x03
	.db #0x21
	.db #0x75
	.db #0x22
	.db #0x04
	.db #0x23
	.db #0x83
	.db #0x26
	.db #0x26
	.db #0x27
	.db #0x0D
	.db #0x28
	.db #0x33
	.db #0x20
	.db #0x05
	.db #0x21
	.db #0x00
	.db #0x22
	.db #0x00
	.db #0x23
	.db #0x84
	.db #0x26
	.db #0xB4
	.db #0x27
	.db #0x09
	.db #0x28
	.db #0x34
	.db #0x20
	.db #0x00
	.db #0x21
	.db #0x60
	.db #0x23
	.db #0x00
	.db #0x24
	.db #0x01
	.db #0x25
	.db #0xC0
	.db #0x26
	.db #0xAB
	.db #0x27
	.db #0x0A
	.db #0x28
	.db #0x35
	.db #0x21
	.db #0x08
	.db #0x22
	.db #0x98
	.db #0x23
	.db #0x95
	.db #0x24
	.db #0x89
	.db #0x25
	.db #0x07
	.db #0x26
	.db #0x24
	.db #0x27
	.db #0x00
	.db #0x28
	.db #0x36
	.db #0x21
	.db #0xBC
	.db #0x22
	.db #0x00
	.db #0x28
	.db #0x37
	.db #0x21
	.db #0xA3
	.db #0x22
	.db #0x0D
	.db #0x23
	.db #0x00
	.db #0x24
	.db #0x01
	.db #0x25
	.db #0xC0
	.db #0x26
	.db #0xAB
	.db #0x27
	.db #0x0A
	.db #0x28
	.db #0x38
	.db #0x21
	.db #0x60
	.db #0x22
	.db #0x00
	.db #0x23
	.db #0x80
	.db #0x24
	.db #0x00
	.db #0x25
	.db #0x38
	.db #0x26
	.db #0xAA
	.db #0x28
	.db #0x39
	.db #0x21
	.db #0x06
	.db #0x22
	.db #0x98
	.db #0x23
	.db #0x95
	.db #0x24
	.db #0x89
	.db #0x25
	.db #0x07
	.db #0x26
	.db #0x24
	.db #0x27
	.db #0x00
	.db #0x28
	.db #0x3A
	.db #0x21
	.db #0xBE
	.db #0x22
	.db #0x00
	.db #0x28
	.db #0x3B
	.db #0x20
	.db #0x05
	.db #0x21
	.db #0x00
	.db #0x23
	.db #0x84
	.db #0x26
	.db #0xB4
	.db #0x27
	.db #0x09
	.db #0x28
	.db #0x3C
	.db #0x20
	.db #0x00
	.db #0x21
	.db #0x60
	.db #0x23
	.db #0x00
	.db #0x24
	.db #0x01
	.db #0x25
	.db #0xC0
	.db #0x26
	.db #0xAB
	.db #0x27
	.db #0x0A
	.db #0x28
	.db #0x3D
	.db #0x21
	.db #0x42
	.db #0x22
	.db #0x01
	.db #0x23
	.db #0x95
	.db #0x24
	.db #0x89
	.db #0x25
	.db #0x07
	.db #0x26
	.db #0x24
	.db #0x27
	.db #0x00
	.db #0x28
	.db #0x3E
	.db #0x21
	.db #0x0C
	.db #0x22
	.db #0x98
	.db #0x26
	.db #0xA4
	.db #0x27
	.db #0x07
	.db #0x28
	.db #0x3F
	.db #0x21
	.db #0x08
	.db #0x28
	.db #0x40
	.db #0x21
	.db #0x60
	.db #0x22
	.db #0x00
	.db #0x23
	.db #0x00
	.db #0x24
	.db #0x01
	.db #0x25
	.db #0xC0
	.db #0x26
	.db #0xAB
	.db #0x27
	.db #0x0A
	.db #0x28
	.db #0x41
	.db #0x21
	.db #0x0C
	.db #0x22
	.db #0x98
	.db #0x23
	.db #0x95
	.db #0x24
	.db #0x89
	.db #0x25
	.db #0x07
	.db #0x26
	.db #0x24
	.db #0x27
	.db #0x00
	.db #0x28
	.db #0x42
	.db #0x20
	.db #0x05
	.db #0x21
	.db #0x00
	.db #0x22
	.db #0x00
	.db #0x23
	.db #0x84
	.db #0x26
	.db #0xB4
	.db #0x27
	.db #0x09
	.db #0x28
	.db #0x43
	.db #0x20
	.db #0x00
	.db #0x23
	.db #0x80
	.db #0x24
	.db #0x00
	.db #0x25
	.db #0x10
	.db #0x26
	.db #0xAB
	.db #0x27
	.db #0x0A
	.db #0x28
	.db #0x44
	.db #0x21
	.db #0x22
	.db #0x22
	.db #0x01
	.db #0x23
	.db #0x95
	.db #0x24
	.db #0x89
	.db #0x25
	.db #0x07
	.db #0x26
	.db #0x24
	.db #0x27
	.db #0x00
	.db #0x28
	.db #0x45
	.db #0x21
	.db #0x00
	.db #0x22
	.db #0x00
	.db #0x23
	.db #0x00
	.db #0x24
	.db #0x04
	.db #0x25
	.db #0x12
	.db #0x26
	.db #0xAA
	.db #0x27
	.db #0x0A
	.db #0x28
	.db #0x46
	.db #0x20
	.db #0x03
	.db #0x21
	.db #0xD4
	.db #0x22
	.db #0x05
	.db #0x23
	.db #0x83
	.db #0x24
	.db #0x89
	.db #0x25
	.db #0x07
	.db #0x26
	.db #0x26
	.db #0x27
	.db #0x0D
	.db #0x28
	.db #0x47
	.db #0x20
	.db #0x00
	.db #0x21
	.db #0x60
	.db #0x22
	.db #0x00
	.db #0x23
	.db #0x00
	.db #0x24
	.db #0x01
	.db #0x25
	.db #0xC0
	.db #0x26
	.db #0xAB
	.db #0x27
	.db #0x0A
	.db #0x28
	.db #0x48
	.db #0x21
	.db #0xB3
	.db #0x23
	.db #0x95
	.db #0x24
	.db #0x89
	.db #0x25
	.db #0x07
	.db #0x26
	.db #0x00
	.db #0x27
	.db #0x08
	.db #0x28
	.db #0x49
	.db #0x21
	.db #0x00
	.db #0x23
	.db #0x00
	.db #0x24
	.db #0x09
	.db #0x25
	.db #0x00
	.db #0x26
	.db #0xAA
	.db #0x27
	.db #0x0A
	.db #0x28
	.db #0x4A
	.db #0x21
	.db #0x02
	.db #0x23
	.db #0x80
	.db #0x24
	.db #0x86
	.db #0x25
	.db #0x3B
	.db #0x28
	.db #0x4B
	.db #0x20
	.db #0x42
	.db #0x21
	.db #0xDD
	.db #0x22
	.db #0x05
	.db #0x24
	.db #0x89
	.db #0x25
	.db #0x07
	.db #0x28
	.db #0x4C
	.db #0x20
	.db #0x00
	.db #0x21
	.db #0x00
	.db #0x22
	.db #0x00
	.db #0x24
	.db #0x1F
	.db #0x25
	.db #0x00
	.db #0x28
	.db #0x4D
	.db #0x21
	.db #0xB3
	.db #0x23
	.db #0x95
	.db #0x24
	.db #0x89
	.db #0x25
	.db #0x07
	.db #0x26
	.db #0x20
	.db #0x27
	.db #0x00
	.db #0x28
	.db #0x4E
	.db #0x21
	.db #0x00
	.db #0x23
	.db #0x00
	.db #0x24
	.db #0x97
	.db #0x25
	.db #0x03
	.db #0x26
	.db #0xAA
	.db #0x27
	.db #0x0A
	.db #0x28
	.db #0x4F
	.db #0x20
	.db #0x42
	.db #0x21
	.db #0xE2
	.db #0x22
	.db #0x05
	.db #0x23
	.db #0x80
	.db #0x24
	.db #0x89
	.db #0x25
	.db #0x07
	.db #0x28
	.db #0x50
	.db #0x20
	.db #0x00
	.db #0x21
	.db #0x10
	.db #0x22
	.db #0x00
	.db #0x23
	.db #0x00
	.db #0x24
	.db #0x80
	.db #0x25
	.db #0xCC
	.db #0x26
	.db #0xAB
	.db #0x28
	.db #0x51
	.db #0x21
	.db #0x00
	.db #0x22
	.db #0x40
	.db #0x23
	.db #0xB4
	.db #0x24
	.db #0x89
	.db #0x25
	.db #0x07
	.db #0x26
	.db #0xAA
	.db #0x27
	.db #0x04
	.db #0x28
	.db #0x52
	.db #0x22
	.db #0x00
	.db #0x23
	.db #0xB0
	.db #0x26
	.db #0x92
	.db #0x27
	.db #0x09
	.db #0x28
	.db #0x53
	.db #0x21
	.db #0x14
	.db #0x22
	.db #0x01
	.db #0x23
	.db #0x95
	.db #0x26
	.db #0x00
	.db #0x27
	.db #0x08
	.db #0x28
	.db #0x54
	.db #0x21
	.db #0x48
	.db #0x23
	.db #0xA4
	.db #0x26
	.db #0x2A
	.db #0x27
	.db #0x00
	.db #0x28
	.db #0x55
	.db #0x21
	.db #0x00
	.db #0x22
	.db #0x00
	.db #0x23
	.db #0x00
	.db #0x24
	.db #0x09
	.db #0x25
	.db #0x00
	.db #0x26
	.db #0xAA
	.db #0x27
	.db #0x0A
	.db #0x28
	.db #0x56
	.db #0x21
	.db #0x08
	.db #0x23
	.db #0x80
	.db #0x24
	.db #0x86
	.db #0x25
	.db #0x3B
	.db #0x28
	.db #0x57
	.db #0x20
	.db #0x42
	.db #0x21
	.db #0x11
	.db #0x22
	.db #0x07
	.db #0x24
	.db #0x89
	.db #0x25
	.db #0x07
	.db #0x28
	.db #0x58
	.db #0x20
	.db #0x00
	.db #0x21
	.db #0x00
	.db #0x22
	.db #0x00
	.db #0x24
	.db #0x1F
	.db #0x25
	.db #0x00
	.db #0x28
	.db #0x59
	.db #0x21
	.db #0x14
	.db #0x22
	.db #0x01
	.db #0x23
	.db #0x95
	.db #0x24
	.db #0x89
	.db #0x25
	.db #0x07
	.db #0x26
	.db #0x20
	.db #0x27
	.db #0x00
	.db #0x28
	.db #0x5A
	.db #0x21
	.db #0x16
	.db #0x26
	.db #0x02
	.db #0x27
	.db #0x09
	.db #0x28
	.db #0x5B
	.db #0x21
	.db #0x00
	.db #0x22
	.db #0x00
	.db #0x23
	.db #0x00
	.db #0x24
	.db #0x80
	.db #0x25
	.db #0x48
	.db #0x26
	.db #0xAA
	.db #0x27
	.db #0x0A
	.db #0x28
	.db #0x5C
	.db #0x23
	.db #0xA0
	.db #0x24
	.db #0x89
	.db #0x25
	.db #0x07
	.db #0x26
	.db #0x14
	.db #0x27
	.db #0x09
	.db #0x28
	.db #0x5D
	.db #0x24
	.db #0x80
	.db #0x25
	.db #0x50
	.db #0x26
	.db #0xA4
	.db #0x27
	.db #0x04
	.db #0x28
	.db #0x5E
	.db #0x21
	.db #0x16
	.db #0x22
	.db #0x01
	.db #0x23
	.db #0x95
	.db #0x24
	.db #0x89
	.db #0x25
	.db #0x07
	.db #0x27
	.db #0x00
	.db #0x28
	.db #0x5F
	.db #0x21
	.db #0x04
	.db #0x22
	.db #0x00
	.db #0x23
	.db #0x00
	.db #0x24
	.db #0x9C
	.db #0x25
	.db #0x78
	.db #0x26
	.db #0xAA
	.db #0x27
	.db #0x0A
	.db #0x28
	.db #0x60
	.db #0x21
	.db #0x43
	.db #0x22
	.db #0x0D
	.db #0x24
	.db #0x01
	.db #0x25
	.db #0xC4
	.db #0x26
	.db #0xAB
	.db #0x28
	.db #0x61
	.db #0x21
	.db #0x03
	.db #0x22
	.db #0x00
	.db #0x24
	.db #0x15
	.db #0x28
	.db #0x62
	.db #0x21
	.db #0x00
	.db #0x24
	.db #0x00
	.db #0x25
	.db #0x00
	.db #0x26
	.db #0xAA
	.db #0x28
	.db #0x63
	.db #0x21
	.db #0x5E
	.db #0x23
	.db #0x95
	.db #0x24
	.db #0x89
	.db #0x25
	.db #0x07
	.db #0x26
	.db #0x10
	.db #0x27
	.db #0x09
	.db #0x28
	.db #0x64
	.db #0x21
	.db #0x03
	.db #0x23
	.db #0x00
	.db #0x24
	.db #0x15
	.db #0x25
	.db #0xC4
	.db #0x26
	.db #0xAB
	.db #0x27
	.db #0x0A
	.db #0x28
	.db #0x65
	.db #0x21
	.db #0x00
	.db #0x23
	.db #0x80
	.db #0x24
	.db #0x00
	.db #0x25
	.db #0x06
	.db #0x26
	.db #0xAA
	.db #0x28
	.db #0x66
	.db #0x24
	.db #0x8F
	.db #0x25
	.db #0xE3
	.db #0x26
	.db #0xAB
	.db #0x28
	.db #0x67
	.db #0x20
	.db #0x42
	.db #0x21
	.db #0xCD
	.db #0x22
	.db #0x07
	.db #0x24
	.db #0x89
	.db #0x25
	.db #0x07
	.db #0x26
	.db #0xAA
	.db #0x28
	.db #0x68
	.db #0x20
	.db #0x00
	.db #0x21
	.db #0x60
	.db #0x22
	.db #0x00
	.db #0x23
	.db #0x00
	.db #0x24
	.db #0x01
	.db #0x25
	.db #0xC0
	.db #0x26
	.db #0xAB
	.db #0x28
	.db #0x69
	.db #0x21
	.db #0x00
	.db #0x23
	.db #0x80
	.db #0x24
	.db #0x8F
	.db #0x25
	.db #0x03
	.db #0x26
	.db #0xAA
	.db #0x28
	.db #0x6A
	.db #0x20
	.db #0x42
	.db #0x21
	.db #0xDD
	.db #0x22
	.db #0x07
	.db #0x24
	.db #0x89
	.db #0x25
	.db #0x07
	.db #0x28
	.db #0x6B
	.db #0x20
	.db #0x00
	.db #0x21
	.db #0x43
	.db #0x22
	.db #0x0D
	.db #0x23
	.db #0x00
	.db #0x24
	.db #0x01
	.db #0x25
	.db #0xC0
	.db #0x26
	.db #0xAB
	.db #0x28
	.db #0x6C
	.db #0x21
	.db #0x00
	.db #0x22
	.db #0x00
	.db #0x24
	.db #0x00
	.db #0x25
	.db #0x04
	.db #0x26
	.db #0xAA
	.db #0x28
	.db #0x6D
	.db #0x20
	.db #0x03
	.db #0x21
	.db #0x7F
	.db #0x22
	.db #0x01
	.db #0x23
	.db #0x83
	.db #0x24
	.db #0x89
	.db #0x25
	.db #0x07
	.db #0x26
	.db #0x26
	.db #0x27
	.db #0x0D
	.db #0x28
	.db #0x6E
	.db #0x21
	.db #0x62
	.db #0x28
	.db #0x6F
	.db #0x20
	.db #0x05
	.db #0x21
	.db #0x00
	.db #0x22
	.db #0x00
	.db #0x23
	.db #0x84
	.db #0x26
	.db #0xB4
	.db #0x27
	.db #0x09
	.db #0x28
	.db #0x70
	.db #0x20
	.db #0x00
	.db #0x21
	.db #0x06
	.db #0x23
	.db #0x95
	.db #0x26
	.db #0x00
	.db #0x27
	.db #0x08
	.db #0x28
	.db #0x71
	.db #0x21
	.db #0x01
	.db #0x23
	.db #0x00
	.db #0x24
	.db #0x97
	.db #0x25
	.db #0x3B
	.db #0x26
	.db #0xAA
	.db #0x27
	.db #0x0A
	.db #0x28
	.db #0x72
	.db #0x20
	.db #0x42
	.db #0x21
	.db #0x0E
	.db #0x22
	.db #0x08
	.db #0x23
	.db #0x80
	.db #0x24
	.db #0x89
	.db #0x25
	.db #0x07
	.db #0x28
	.db #0x73
	.db #0x20
	.db #0x03
	.db #0x21
	.db #0x3C
	.db #0x22
	.db #0x0B
	.db #0x23
	.db #0x83
	.db #0x26
	.db #0x26
	.db #0x27
	.db #0x0D
	.db #0x28
	.db #0x74
	.db #0x20
	.db #0x00
	.db #0x21
	.db #0x03
	.db #0x22
	.db #0x00
	.db #0x23
	.db #0x95
	.db #0x26
	.db #0x02
	.db #0x27
	.db #0x08
	.db #0x28
	.db #0x75
	.db #0x21
	.db #0x27
	.db #0x23
	.db #0x00
	.db #0x24
	.db #0x81
	.db #0x25
	.db #0xC4
	.db #0x26
	.db #0xAB
	.db #0x27
	.db #0x0A
	.db #0x28
	.db #0x76
	.db #0x21
	.db #0x00
	.db #0x23
	.db #0x80
	.db #0x24
	.db #0x09
	.db #0x25
	.db #0x48
	.db #0x26
	.db #0xAA
	.db #0x28
	.db #0x77
	.db #0x21
	.db #0x58
	.db #0x22
	.db #0x34
	.db #0x23
	.db #0xA3
	.db #0x24
	.db #0x89
	.db #0x25
	.db #0x07
	.db #0x26
	.db #0x2A
	.db #0x27
	.db #0x00
	.db #0x28
	.db #0x78
	.db #0x21
	.db #0x00
	.db #0x22
	.db #0x00
	.db #0x23
	.db #0xA0
	.db #0x26
	.db #0x00
	.db #0x27
	.db #0x09
	.db #0x28
	.db #0x79
	.db #0x21
	.db #0x07
	.db #0x23
	.db #0x80
	.db #0x24
	.db #0x03
	.db #0x25
	.db #0x39
	.db #0x26
	.db #0xAA
	.db #0x27
	.db #0x0A
	.db #0x28
	.db #0x7A
	.db #0x21
	.db #0x04
	.db #0x23
	.db #0x00
	.db #0x24
	.db #0x1C
	.db #0x25
	.db #0x38
	.db #0x28
	.db #0x7B
	.db #0x21
	.db #0x07
	.db #0x23
	.db #0x80
	.db #0x24
	.db #0x83
	.db #0x25
	.db #0x39
	.db #0x28
	.db #0x7C
	.db #0x21
	.db #0x03
	.db #0x23
	.db #0x95
	.db #0x24
	.db #0x89
	.db #0x25
	.db #0x07
	.db #0x26
	.db #0x02
	.db #0x27
	.db #0x08
	.db #0x28
	.db #0x7D
	.db #0x21
	.db #0x27
	.db #0x23
	.db #0x00
	.db #0x24
	.db #0x81
	.db #0x25
	.db #0xC4
	.db #0x26
	.db #0xAB
	.db #0x27
	.db #0x0A
	.db #0x28
	.db #0x7E
	.db #0x21
	.db #0x00
	.db #0x23
	.db #0x80
	.db #0x24
	.db #0x09
	.db #0x25
	.db #0x48
	.db #0x26
	.db #0xAA
	.db #0x28
	.db #0x7F
	.db #0x21
	.db #0x58
	.db #0x22
	.db #0x34
	.db #0x23
	.db #0xA3
	.db #0x24
	.db #0x89
	.db #0x25
	.db #0x07
	.db #0x26
	.db #0x2A
	.db #0x27
	.db #0x00
	.db #0x28
	.db #0x80
	.db #0x21
	.db #0x06
	.db #0x22
	.db #0x00
	.db #0x23
	.db #0x00
	.db #0x24
	.db #0x81
	.db #0x25
	.db #0xC0
	.db #0x26
	.db #0x93
	.db #0x27
	.db #0x01
	.db #0x28
	.db #0x81
	.db #0x21
	.db #0x00
	.db #0x23
	.db #0x80
	.db #0x24
	.db #0x89
	.db #0x25
	.db #0x48
	.db #0x26
	.db #0xAA
	.db #0x27
	.db #0x0A
	.db #0x28
	.db #0x82
	.db #0x20
	.db #0x02
	.db #0x21
	.db #0x66
	.db #0x22
	.db #0x08
	.db #0x23
	.db #0x00
	.db #0x24
	.db #0x00
	.db #0x25
	.db #0x66
	.db #0x28
	.db #0x83
	.db #0x20
	.db #0x00
	.db #0x21
	.db #0x00
	.db #0x22
	.db #0x00
	.db #0x23
	.db #0x80
	.db #0x24
	.db #0x1F
	.db #0x25
	.db #0x02
	.db #0x28
	.db #0x84
	.db #0x21
	.db #0x06
	.db #0x24
	.db #0x89
	.db #0x25
	.db #0x07
	.db #0x26
	.db #0xDC
	.db #0x27
	.db #0x0C
	.db #0x28
	.db #0x85
	.db #0x21
	.db #0x00
	.db #0x23
	.db #0xAA
	.db #0x26
	.db #0xAA
	.db #0x27
	.db #0x0A
	.db #0x28
	.db #0x86
	.db #0x23
	.db #0xB6
	.db #0x26
	.db #0x00
	.db #0x27
	.db #0x08
	.db #0x28
	.db #0x87
	.db #0x23
	.db #0x80
	.db #0x24
	.db #0x86
	.db #0x25
	.db #0x3B
	.db #0x26
	.db #0xAA
	.db #0x27
	.db #0x0A
	.db #0x28
	.db #0x88
	.db #0x21
	.db #0x05
	.db #0x24
	.db #0x89
	.db #0x25
	.db #0x07
	.db #0x26
	.db #0xDC
	.db #0x27
	.db #0x0C
	.db #0x28
	.db #0x89
	.db #0x21
	.db #0x00
	.db #0x23
	.db #0xAA
	.db #0x26
	.db #0xAA
	.db #0x27
	.db #0x0A
	.db #0x28
	.db #0x8A
	.db #0x23
	.db #0xB6
	.db #0x26
	.db #0x00
	.db #0x27
	.db #0x08
	.db #0x28
	.db #0x8B
	.db #0x23
	.db #0x80
	.db #0x24
	.db #0x86
	.db #0x25
	.db #0x3B
	.db #0x26
	.db #0xAA
	.db #0x27
	.db #0x0A
	.db #0x28
	.db #0x8C
	.db #0x20
	.db #0x42
	.db #0x21
	.db #0x7B
	.db #0x22
	.db #0x08
	.db #0x24
	.db #0x89
	.db #0x25
	.db #0x07
	.db #0x28
	.db #0x8D
	.db #0x20
	.db #0x00
	.db #0x21
	.db #0x00
	.db #0x22
	.db #0x00
	.db #0x23
	.db #0x00
	.db #0x24
	.db #0x01
	.db #0x25
	.db #0x82
	.db #0x28
	.db #0x8E
	.db #0x21
	.db #0x05
	.db #0x24
	.db #0x81
	.db #0x25
	.db #0xC2
	.db #0x26
	.db #0xAB
	.db #0x28
	.db #0x8F
	.db #0x20
	.db #0x03
	.db #0x21
	.db #0x93
	.db #0x22
	.db #0x08
	.db #0x23
	.db #0x83
	.db #0x24
	.db #0x89
	.db #0x25
	.db #0x07
	.db #0x26
	.db #0x26
	.db #0x27
	.db #0x0D
	.db #0x28
	.db #0x90
	.db #0x20
	.db #0x00
	.db #0x21
	.db #0x05
	.db #0x22
	.db #0x00
	.db #0x23
	.db #0x00
	.db #0x24
	.db #0x81
	.db #0x25
	.db #0xC0
	.db #0x26
	.db #0x13
	.db #0x27
	.db #0x01
	.db #0x28
	.db #0x91
	.db #0x21
	.db #0x00
	.db #0x23
	.db #0x80
	.db #0x24
	.db #0x89
	.db #0x25
	.db #0x48
	.db #0x26
	.db #0xAA
	.db #0x27
	.db #0x0A
	.db #0x28
	.db #0x92
	.db #0x20
	.db #0x02
	.db #0x21
	.db #0x7E
	.db #0x22
	.db #0x08
	.db #0x23
	.db #0x00
	.db #0x24
	.db #0x00
	.db #0x25
	.db #0x66
	.db #0x28
	.db #0x93
	.db #0x20
	.db #0x00
	.db #0x21
	.db #0x00
	.db #0x22
	.db #0x00
	.db #0x23
	.db #0x80
	.db #0x24
	.db #0x1F
	.db #0x25
	.db #0x02
	.db #0x28
	.db #0x94
	.db #0x21
	.db #0x05
	.db #0x24
	.db #0x89
	.db #0x25
	.db #0x07
	.db #0x26
	.db #0xDC
	.db #0x27
	.db #0x0C
	.db #0x28
	.db #0x95
	.db #0x21
	.db #0x00
	.db #0x23
	.db #0xAA
	.db #0x26
	.db #0xAA
	.db #0x27
	.db #0x0A
	.db #0x28
	.db #0x96
	.db #0x23
	.db #0xB6
	.db #0x26
	.db #0x00
	.db #0x27
	.db #0x08
	.db #0x28
	.db #0x97
	.db #0x23
	.db #0x80
	.db #0x24
	.db #0x86
	.db #0x25
	.db #0x3B
	.db #0x26
	.db #0xAA
	.db #0x27
	.db #0x0A
	.db #0x28
	.db #0x98
	.db #0x21
	.db #0x05
	.db #0x24
	.db #0x89
	.db #0x25
	.db #0x07
	.db #0x26
	.db #0xDC
	.db #0x27
	.db #0x0C
	.db #0x28
	.db #0x99
	.db #0x21
	.db #0x00
	.db #0x23
	.db #0xAA
	.db #0x26
	.db #0xAA
	.db #0x27
	.db #0x0A
	.db #0x28
	.db #0x9A
	.db #0x23
	.db #0x80
	.db #0x24
	.db #0x1F
	.db #0x25
	.db #0x02
	.db #0x28
	.db #0x9B
	.db #0x21
	.db #0x01
	.db #0x23
	.db #0x00
	.db #0x24
	.db #0x81
	.db #0x25
	.db #0xC2
	.db #0x26
	.db #0xAB
	.db #0x28
	.db #0x9C
	.db #0x20
	.db #0x03
	.db #0x21
	.db #0x93
	.db #0x22
	.db #0x08
	.db #0x23
	.db #0x83
	.db #0x24
	.db #0x89
	.db #0x25
	.db #0x07
	.db #0x26
	.db #0x26
	.db #0x27
	.db #0x0D
	.db #0x28
	.db #0x9D
	.db #0x20
	.db #0x00
	.db #0x21
	.db #0x04
	.db #0x22
	.db #0x00
	.db #0x23
	.db #0x95
	.db #0x26
	.db #0x12
	.db #0x27
	.db #0x08
	.db #0x28
	.db #0x9E
	.db #0x21
	.db #0x60
	.db #0x23
	.db #0xC4
	.db #0x26
	.db #0xAA
	.db #0x27
	.db #0x04
	.db #0x28
	.db #0x9F
	.db #0x21
	.db #0x00
	.db #0x23
	.db #0xC0
	.db #0x26
	.db #0x00
	.db #0x27
	.db #0x09
	.db #0x28
	.db #0xA0
	.db #0x20
	.db #0x42
	.db #0x21
	.db #0xCB
	.db #0x22
	.db #0x08
	.db #0x23
	.db #0x80
	.db #0x26
	.db #0xAA
	.db #0x27
	.db #0x0A
	.db #0x28
	.db #0xA1
	.db #0x20
	.db #0x70
	.db #0x21
	.db #0x54
	.db #0x22
	.db #0xB8
	.db #0x23
	.db #0x95
	.db #0x26
	.db #0x12
	.db #0x27
	.db #0x08
	.db #0x28
	.db #0xA2
	.db #0x20
	.db #0x02
	.db #0x21
	.db #0xCC
	.db #0x22
	.db #0x08
	.db #0x23
	.db #0x80
	.db #0x26
	.db #0xAA
	.db #0x27
	.db #0x0A
	.db #0x28
	.db #0xA3
	.db #0x20
	.db #0x03
	.db #0x21
	.db #0xCA
	.db #0x22
	.db #0x0F
	.db #0x23
	.db #0x83
	.db #0x26
	.db #0x26
	.db #0x27
	.db #0x0D
	.db #0x28
	.db #0xA4
	.db #0x20
	.db #0x00
	.db #0x21
	.db #0x00
	.db #0x22
	.db #0x00
	.db #0x23
	.db #0x00
	.db #0x24
	.db #0x8C
	.db #0x25
	.db #0x0C
	.db #0x26
	.db #0xAA
	.db #0x27
	.db #0x0A
	.db #0x28
	.db #0xA5
	.db #0x21
	.db #0x04
	.db #0x24
	.db #0x82
	.db #0x25
	.db #0x78
	.db #0x28
	.db #0xA6
	.db #0x21
	.db #0x00
	.db #0x23
	.db #0x80
	.db #0x24
	.db #0x89
	.db #0x25
	.db #0x48
	.db #0x26
	.db #0x12
	.db #0x27
	.db #0x04
	.db #0x28
	.db #0xA7
	.db #0x20
	.db #0x03
	.db #0x21
	.db #0xDE
	.db #0x22
	.db #0x0F
	.db #0x23
	.db #0x83
	.db #0x25
	.db #0x07
	.db #0x26
	.db #0x26
	.db #0x27
	.db #0x0D
	.db #0x28
	.db #0xA8
	.db #0x20
	.db #0x00
	.db #0x21
	.db #0x01
	.db #0x22
	.db #0x00
	.db #0x23
	.db #0x00
	.db #0x24
	.db #0x9C
	.db #0x25
	.db #0x78
	.db #0x26
	.db #0xAA
	.db #0x27
	.db #0x0A
	.db #0x28
	.db #0xA9
	.db #0x21
	.db #0x00
	.db #0x23
	.db #0x80
	.db #0x24
	.db #0x81
	.db #0x25
	.db #0x40
	.db #0x28
	.db #0xAA
	.db #0x20
	.db #0x03
	.db #0x21
	.db #0xCF
	.db #0x22
	.db #0x0F
	.db #0x23
	.db #0x83
	.db #0x24
	.db #0x89
	.db #0x25
	.db #0x07
	.db #0x26
	.db #0x26
	.db #0x27
	.db #0x0D
	.db #0x28
	.db #0xAB
	.db #0x20
	.db #0x70
	.db #0x21
	.db #0x08
	.db #0x22
	.db #0xB8
	.db #0x23
	.db #0x95
	.db #0x26
	.db #0xA0
	.db #0x27
	.db #0x04
	.db #0x28
	.db #0xAC
	.db #0x20
	.db #0x03
	.db #0x21
	.db #0xD4
	.db #0x22
	.db #0x0F
	.db #0x23
	.db #0x83
	.db #0x26
	.db #0x26
	.db #0x27
	.db #0x0D
	.db #0x28
	.db #0xAD
	.db #0x21
	.db #0x27
	.db #0x22
	.db #0x0B
	.db #0x28
	.db #0xAE
	.db #0x20
	.db #0x70
	.db #0x21
	.db #0x63
	.db #0x22
	.db #0xB8
	.db #0x23
	.db #0x95
	.db #0x26
	.db #0x12
	.db #0x27
	.db #0x08
	.db #0x28
	.db #0xAF
	.db #0x20
	.db #0x00
	.db #0x21
	.db #0x01
	.db #0x22
	.db #0x00
	.db #0x23
	.db #0x80
	.db #0x24
	.db #0x86
	.db #0x25
	.db #0xCB
	.db #0x26
	.db #0xAB
	.db #0x27
	.db #0x0A
	.db #0x28
	.db #0xB0
	.db #0x20
	.db #0x42
	.db #0x21
	.db #0xDD
	.db #0x22
	.db #0x08
	.db #0x24
	.db #0x89
	.db #0x25
	.db #0x07
	.db #0x26
	.db #0xAA
	.db #0x28
	.db #0xB1
	.db #0x20
	.db #0x00
	.db #0x21
	.db #0x18
	.db #0x22
	.db #0x80
	.db #0x23
	.db #0x95
	.db #0x26
	.db #0xA4
	.db #0x27
	.db #0x00
	.db #0x28
	.db #0xB2
	.db #0x20
	.db #0x03
	.db #0x21
	.db #0xD9
	.db #0x22
	.db #0x0F
	.db #0x23
	.db #0x83
	.db #0x26
	.db #0x26
	.db #0x27
	.db #0x0D
	.db #0x28
	.db #0xB3
	.db #0x20
	.db #0x70
	.db #0x21
	.db #0x0A
	.db #0x22
	.db #0xB8
	.db #0x23
	.db #0x95
	.db #0x26
	.db #0xA0
	.db #0x27
	.db #0x00
	.db #0x28
	.db #0xB4
	.db #0x20
	.db #0x02
	.db #0x21
	.db #0xE0
	.db #0x22
	.db #0x08
	.db #0x23
	.db #0x80
	.db #0x26
	.db #0xAA
	.db #0x27
	.db #0x0A
	.db #0x28
	.db #0xB5
	.db #0x20
	.db #0x70
	.db #0x21
	.db #0x0A
	.db #0x22
	.db #0xB8
	.db #0x23
	.db #0x95
	.db #0x26
	.db #0xA0
	.db #0x27
	.db #0x00
	.db #0x28
	.db #0xB6
	.db #0x21
	.db #0x54
	.db #0x26
	.db #0x02
	.db #0x27
	.db #0x08
	.db #0x28
	.db #0xB7
	.db #0x20
	.db #0x00
	.db #0x21
	.db #0x18
	.db #0x22
	.db #0x80
	.db #0x26
	.db #0xA4
	.db #0x27
	.db #0x00
	.db #0x28
	.db #0xB8
	.db #0x21
	.db #0x00
	.db #0x22
	.db #0x00
	.db #0x23
	.db #0x80
	.db #0x24
	.db #0x80
	.db #0x25
	.db #0x48
	.db #0x26
	.db #0xAA
	.db #0x27
	.db #0x0A
	.db #0x28
	.db #0xB9
	.db #0x20
	.db #0x70
	.db #0x21
	.db #0x5E
	.db #0x22
	.db #0xB8
	.db #0x23
	.db #0x95
	.db #0x24
	.db #0x89
	.db #0x25
	.db #0x07
	.db #0x26
	.db #0x12
	.db #0x27
	.db #0x08
	.db #0x28
	.db #0xBA
	.db #0x20
	.db #0x00
	.db #0x21
	.db #0x00
	.db #0x22
	.db #0x00
	.db #0x23
	.db #0x80
	.db #0x24
	.db #0x09
	.db #0x25
	.db #0x4B
	.db #0x26
	.db #0xAA
	.db #0x27
	.db #0x0A
	.db #0x28
	.db #0xBB
	.db #0x20
	.db #0x70
	.db #0x21
	.db #0x5F
	.db #0x22
	.db #0xB8
	.db #0x23
	.db #0x95
	.db #0x24
	.db #0x89
	.db #0x25
	.db #0x07
	.db #0x26
	.db #0x10
	.db #0x27
	.db #0x08
	.db #0x28
	.db #0xBC
	.db #0x20
	.db #0x00
	.db #0x21
	.db #0x00
	.db #0x22
	.db #0x00
	.db #0x23
	.db #0x00
	.db #0x24
	.db #0x1C
	.db #0x25
	.db #0x83
	.db #0x26
	.db #0xAB
	.db #0x27
	.db #0x0A
	.db #0x28
	.db #0xBD
	.db #0x20
	.db #0x03
	.db #0x21
	.db #0x32
	.db #0x22
	.db #0x09
	.db #0x23
	.db #0x83
	.db #0x24
	.db #0x89
	.db #0x25
	.db #0x07
	.db #0x26
	.db #0x26
	.db #0x27
	.db #0x0D
	.db #0x28
	.db #0xBE
	.db #0x20
	.db #0x00
	.db #0x21
	.db #0x00
	.db #0x22
	.db #0x00
	.db #0x23
	.db #0x00
	.db #0x24
	.db #0x82
	.db #0x25
	.db #0x8C
	.db #0x26
	.db #0xAB
	.db #0x27
	.db #0x0A
	.db #0x28
	.db #0xBF
	.db #0x20
	.db #0x03
	.db #0x21
	.db #0x25
	.db #0x22
	.db #0x09
	.db #0x23
	.db #0x83
	.db #0x24
	.db #0x89
	.db #0x25
	.db #0x07
	.db #0x26
	.db #0x26
	.db #0x27
	.db #0x0D
	.db #0x28
	.db #0xC0
	.db #0x20
	.db #0x42
	.db #0x21
	.db #0xBC
	.db #0x23
	.db #0x80
	.db #0x26
	.db #0xAA
	.db #0x27
	.db #0x0A
	.db #0x28
	.db #0xC1
	.db #0x20
	.db #0x00
	.db #0x21
	.db #0x01
	.db #0x22
	.db #0x00
	.db #0x23
	.db #0x00
	.db #0x24
	.db #0x01
	.db #0x25
	.db #0xC0
	.db #0x26
	.db #0xAB
	.db #0x28
	.db #0xC2
	.db #0x20
	.db #0x70
	.db #0x21
	.db #0x0F
	.db #0x22
	.db #0xB8
	.db #0x23
	.db #0x95
	.db #0x24
	.db #0x89
	.db #0x25
	.db #0x07
	.db #0x26
	.db #0x20
	.db #0x27
	.db #0x00
	.db #0x28
	.db #0xC3
	.db #0x20
	.db #0x03
	.db #0x21
	.db #0xE3
	.db #0x22
	.db #0x0F
	.db #0x23
	.db #0x83
	.db #0x26
	.db #0x26
	.db #0x27
	.db #0x0D
	.db #0x28
	.db #0xC4
	.db #0x20
	.db #0x05
	.db #0x21
	.db #0x00
	.db #0x22
	.db #0x00
	.db #0x23
	.db #0x84
	.db #0x26
	.db #0xB4
	.db #0x27
	.db #0x09
	.db #0x28
	.db #0xC5
	.db #0x20
	.db #0x00
	.db #0x21
	.db #0x03
	.db #0x23
	.db #0x95
	.db #0x26
	.db #0x14
	.db #0x27
	.db #0x08
	.db #0x28
	.db #0xC6
	.db #0x21
	.db #0xA6
	.db #0x23
	.db #0xA4
	.db #0x26
	.db #0x2A
	.db #0x27
	.db #0x05
	.db #0x28
	.db #0xC7
	.db #0x21
	.db #0x00
	.db #0x23
	.db #0xA0
	.db #0x26
	.db #0x44
	.db #0x27
	.db #0x09
	.db #0x28
	.db #0xC8
	.db #0x21
	.db #0x18
	.db #0x22
	.db #0x6D
	.db #0x23
	.db #0x80
	.db #0x24
	.db #0x9E
	.db #0x25
	.db #0x7B
	.db #0x26
	.db #0xAA
	.db #0x27
	.db #0x0A
	.db #0x28
	.db #0xC9
	.db #0x20
	.db #0x42
	.db #0x21
	.db #0x13
	.db #0x22
	.db #0x0B
	.db #0x24
	.db #0x89
	.db #0x25
	.db #0x07
	.db #0x28
	.db #0xCA
	.db #0x20
	.db #0x00
	.db #0x21
	.db #0xAE
	.db #0x22
	.db #0x00
	.db #0x23
	.db #0x95
	.db #0x26
	.db #0x24
	.db #0x27
	.db #0x00
	.db #0x28
	.db #0xCB
	.db #0x21
	.db #0x00
	.db #0x22
	.db #0x03
	.db #0x23
	.db #0x80
	.db #0x24
	.db #0x87
	.db #0x25
	.db #0x7B
	.db #0x26
	.db #0xAA
	.db #0x27
	.db #0x0A
	.db #0x28
	.db #0xCC
	.db #0x20
	.db #0x42
	.db #0x21
	.db #0x16
	.db #0x22
	.db #0x0B
	.db #0x24
	.db #0x89
	.db #0x25
	.db #0x07
	.db #0x28
	.db #0xCD
	.db #0x20
	.db #0x00
	.db #0x21
	.db #0xAE
	.db #0x22
	.db #0x00
	.db #0x23
	.db #0x95
	.db #0x26
	.db #0x24
	.db #0x27
	.db #0x00
	.db #0x28
	.db #0xCE
	.db #0x20
	.db #0x05
	.db #0x21
	.db #0x00
	.db #0x23
	.db #0x84
	.db #0x26
	.db #0xB4
	.db #0x27
	.db #0x09
	.db #0x28
	.db #0xCF
	.db #0x20
	.db #0x03
	.db #0x21
	.db #0x0D
	.db #0x22
	.db #0x0B
	.db #0x23
	.db #0x83
	.db #0x26
	.db #0x26
	.db #0x27
	.db #0x0D
	.db #0x28
	.db #0xD0
	.db #0x20
	.db #0x00
	.db #0x21
	.db #0x00
	.db #0x22
	.db #0x00
	.db #0x23
	.db #0x00
	.db #0x24
	.db #0x80
	.db #0x26
	.db #0x02
	.db #0x27
	.db #0x00
	.db #0x28
	.db #0xD1
	.db #0x23
	.db #0x80
	.db #0x24
	.db #0x09
	.db #0x25
	.db #0x48
	.db #0x26
	.db #0x1E
	.db #0x28
	.db #0xD2
	.db #0x21
	.db #0x58
	.db #0x22
	.db #0x34
	.db #0x23
	.db #0x33
	.db #0x24
	.db #0x80
	.db #0x25
	.db #0x07
	.db #0x26
	.db #0x2A
	.db #0x28
	.db #0xD3
	.db #0x21
	.db #0x00
	.db #0x22
	.db #0x00
	.db #0x23
	.db #0x00
	.db #0x26
	.db #0x80
	.db #0x27
	.db #0x10
	.db #0x28
	.db #0xD4
	.db #0x21
	.db #0x10
	.db #0x23
	.db #0x63
	.db #0x26
	.db #0x2A
	.db #0x27
	.db #0x00
	.db #0x28
	.db #0xD5
	.db #0x21
	.db #0x00
	.db #0x23
	.db #0x60
	.db #0x26
	.db #0xA8
	.db #0x27
	.db #0x12
	.db #0x28
	.db #0xD6
	.db #0x21
	.db #0xAF
	.db #0x22
	.db #0x4C
	.db #0x23
	.db #0x00
	.db #0x26
	.db #0xC8
	.db #0x27
	.db #0x0C
	.db #0x28
	.db #0xD7
	.db #0x21
	.db #0x00
	.db #0x22
	.db #0x00
	.db #0x26
	.db #0x80
	.db #0x27
	.db #0x05
	.db #0x28
	.db #0xD8
	.db #0x23
	.db #0x80
	.db #0x24
	.db #0x86
	.db #0x25
	.db #0x3B
	.db #0x26
	.db #0x1E
	.db #0x27
	.db #0x00
	.db #0x28
	.db #0xD9
	.db #0x20
	.db #0x42
	.db #0x21
	.db #0x1C
	.db #0x22
	.db #0x0E
	.db #0x23
	.db #0x00
	.db #0x24
	.db #0x80
	.db #0x25
	.db #0x07
	.db #0x28
	.db #0xDA
	.db #0x20
	.db #0x00
	.db #0x21
	.db #0x35
	.db #0x22
	.db #0x29
	.db #0x26
	.db #0xC4
	.db #0x27
	.db #0x0C
	.db #0x28
	.db #0xDB
	.db #0x20
	.db #0x02
	.db #0x21
	.db #0x1D
	.db #0x22
	.db #0x0E
	.db #0x26
	.db #0x1E
	.db #0x27
	.db #0x00
	.db #0x28
	.db #0xDC
	.db #0x20
	.db #0x00
	.db #0x21
	.db #0x7F
	.db #0x22
	.db #0x34
	.db #0x26
	.db #0xC4
	.db #0x27
	.db #0x0C
	.db #0x28
	.db #0xDD
	.db #0x21
	.db #0x00
	.db #0x22
	.db #0x00
	.db #0x23
	.db #0x90
	.db #0x24
	.db #0x9F
	.db #0x25
	.db #0x04
	.db #0x26
	.db #0x10
	.db #0x27
	.db #0x0A
	.db #0x28
	.db #0xDE
	.db #0x23
	.db #0x00
	.db #0x24
	.db #0x84
	.db #0x25
	.db #0x00
	.db #0x26
	.db #0x80
	.db #0x27
	.db #0x10
	.db #0x28
	.db #0xDF
	.db #0x21
	.db #0x06
	.db #0x23
	.db #0x63
	.db #0x24
	.db #0x80
	.db #0x25
	.db #0x07
	.db #0x26
	.db #0x2A
	.db #0x27
	.db #0x00
	.db #0x28
	.db #0xE0
	.db #0x21
	.db #0x00
	.db #0x23
	.db #0x80
	.db #0x24
	.db #0x89
	.db #0x26
	.db #0xAA
	.db #0x27
	.db #0x0A
	.db #0x28
	.db #0xE1
	.db #0x20
	.db #0x05
	.db #0x23
	.db #0x84
	.db #0x26
	.db #0xB4
	.db #0x27
	.db #0x09
	.db #0x28
	.db #0xE2
	.db #0x20
	.db #0x70
	.db #0x21
	.db #0x61
	.db #0x22
	.db #0xB8
	.db #0x23
	.db #0x95
	.db #0x26
	.db #0x12
	.db #0x27
	.db #0x08
	.db #0x28
	.db #0xE3
	.db #0x20
	.db #0x00
	.db #0x21
	.db #0x01
	.db #0x22
	.db #0x00
	.db #0x23
	.db #0x80
	.db #0x24
	.db #0x86
	.db #0x25
	.db #0xC3
	.db #0x26
	.db #0xAB
	.db #0x27
	.db #0x0A
	.db #0x28
	.db #0xE4
	.db #0x20
	.db #0x42
	.db #0x21
	.db #0xCE
	.db #0x22
	.db #0x0F
	.db #0x24
	.db #0x89
	.db #0x25
	.db #0x07
	.db #0x26
	.db #0xAA
	.db #0x28
	.db #0xE5
	.db #0x20
	.db #0x70
	.db #0x21
	.db #0x50
	.db #0x22
	.db #0xB8
	.db #0x23
	.db #0x95
	.db #0x26
	.db #0x12
	.db #0x27
	.db #0x08
	.db #0x28
	.db #0xE6
	.db #0x20
	.db #0x05
	.db #0x21
	.db #0x00
	.db #0x22
	.db #0x00
	.db #0x23
	.db #0x84
	.db #0x26
	.db #0xB4
	.db #0x27
	.db #0x09
	.db #0x28
	.db #0xE7
	.db #0x20
	.db #0x70
	.db #0x21
	.db #0x64
	.db #0x22
	.db #0xB8
	.db #0x23
	.db #0x95
	.db #0x26
	.db #0x12
	.db #0x27
	.db #0x08
	.db #0x28
	.db #0xE8
	.db #0x20
	.db #0x00
	.db #0x21
	.db #0x01
	.db #0x22
	.db #0x00
	.db #0x23
	.db #0x80
	.db #0x24
	.db #0x86
	.db #0x25
	.db #0xC3
	.db #0x26
	.db #0xAB
	.db #0x27
	.db #0x0A
	.db #0x28
	.db #0xE9
	.db #0x20
	.db #0x42
	.db #0x21
	.db #0xD3
	.db #0x22
	.db #0x0F
	.db #0x24
	.db #0x89
	.db #0x25
	.db #0x07
	.db #0x26
	.db #0xAA
	.db #0x28
	.db #0xEA
	.db #0x20
	.db #0x70
	.db #0x21
	.db #0x51
	.db #0x22
	.db #0xB8
	.db #0x23
	.db #0x95
	.db #0x26
	.db #0x12
	.db #0x27
	.db #0x08
	.db #0x28
	.db #0xEB
	.db #0x20
	.db #0x05
	.db #0x21
	.db #0x00
	.db #0x22
	.db #0x00
	.db #0x23
	.db #0x84
	.db #0x26
	.db #0xB4
	.db #0x27
	.db #0x09
	.db #0x28
	.db #0xEC
	.db #0x20
	.db #0x70
	.db #0x21
	.db #0x65
	.db #0x22
	.db #0xB8
	.db #0x23
	.db #0x95
	.db #0x26
	.db #0x12
	.db #0x27
	.db #0x08
	.db #0x28
	.db #0xED
	.db #0x20
	.db #0x00
	.db #0x21
	.db #0x01
	.db #0x22
	.db #0x00
	.db #0x23
	.db #0x80
	.db #0x24
	.db #0x86
	.db #0x25
	.db #0xC3
	.db #0x26
	.db #0xAB
	.db #0x27
	.db #0x0A
	.db #0x28
	.db #0xEE
	.db #0x20
	.db #0x42
	.db #0x21
	.db #0xD8
	.db #0x22
	.db #0x0F
	.db #0x24
	.db #0x89
	.db #0x25
	.db #0x07
	.db #0x26
	.db #0xAA
	.db #0x28
	.db #0xEF
	.db #0x20
	.db #0x70
	.db #0x21
	.db #0x52
	.db #0x22
	.db #0xB8
	.db #0x23
	.db #0x95
	.db #0x26
	.db #0x12
	.db #0x27
	.db #0x08
	.db #0x28
	.db #0xF0
	.db #0x20
	.db #0x05
	.db #0x21
	.db #0x00
	.db #0x22
	.db #0x00
	.db #0x23
	.db #0x84
	.db #0x26
	.db #0xB4
	.db #0x27
	.db #0x09
	.db #0x28
	.db #0xF1
	.db #0x20
	.db #0x70
	.db #0x21
	.db #0x61
	.db #0x22
	.db #0xB8
	.db #0x23
	.db #0x95
	.db #0x26
	.db #0x02
	.db #0x27
	.db #0x08
	.db #0x28
	.db #0xF2
	.db #0x20
	.db #0x00
	.db #0x21
	.db #0x01
	.db #0x22
	.db #0x00
	.db #0x23
	.db #0x80
	.db #0x24
	.db #0x86
	.db #0x25
	.db #0xC3
	.db #0x26
	.db #0xAB
	.db #0x27
	.db #0x0A
	.db #0x28
	.db #0xF3
	.db #0x20
	.db #0x42
	.db #0x21
	.db #0xDD
	.db #0x22
	.db #0x0F
	.db #0x24
	.db #0x89
	.db #0x25
	.db #0x07
	.db #0x26
	.db #0xAA
	.db #0x28
	.db #0xF4
	.db #0x20
	.db #0x70
	.db #0x21
	.db #0x50
	.db #0x22
	.db #0xB8
	.db #0x23
	.db #0x95
	.db #0x26
	.db #0x02
	.db #0x27
	.db #0x08
	.db #0x28
	.db #0xF5
	.db #0x20
	.db #0x05
	.db #0x21
	.db #0x00
	.db #0x22
	.db #0x00
	.db #0x23
	.db #0x84
	.db #0x26
	.db #0xB4
	.db #0x27
	.db #0x09
	.db #0x28
	.db #0xF6
	.db #0x20
	.db #0x00
	.db #0x21
	.db #0x01
	.db #0x23
	.db #0x80
	.db #0x24
	.db #0x86
	.db #0x25
	.db #0xCB
	.db #0x26
	.db #0xAB
	.db #0x27
	.db #0x0A
	.db #0x28
	.db #0xF7
	.db #0x20
	.db #0x42
	.db #0x21
	.db #0xE1
	.db #0x22
	.db #0x0F
	.db #0x24
	.db #0x89
	.db #0x25
	.db #0x07
	.db #0x26
	.db #0xAA
	.db #0x28
	.db #0xF8
	.db #0x20
	.db #0x00
	.db #0x21
	.db #0x02
	.db #0x22
	.db #0x00
	.db #0x23
	.db #0x00
	.db #0x24
	.db #0x81
	.db #0x25
	.db #0xC4
	.db #0x26
	.db #0xAB
	.db #0x28
	.db #0xF9
	.db #0x21
	.db #0x00
	.db #0x23
	.db #0x80
	.db #0x24
	.db #0x89
	.db #0x25
	.db #0x48
	.db #0x26
	.db #0xAA
	.db #0x28
	.db #0xFA
	.db #0x20
	.db #0x05
	.db #0x23
	.db #0x84
	.db #0x25
	.db #0x07
	.db #0x26
	.db #0xB4
	.db #0x27
	.db #0x09
	.db #0x28
	.db #0xFB
	.db #0x20
	.db #0x70
	.db #0x21
	.db #0x4E
	.db #0x22
	.db #0xB8
	.db #0x23
	.db #0x95
	.db #0x26
	.db #0x10
	.db #0x27
	.db #0x08
	.db #0x28
	.db #0xFC
	.db #0x20
	.db #0x00
	.db #0x21
	.db #0x00
	.db #0x22
	.db #0x00
	.db #0x23
	.db #0x80
	.db #0x24
	.db #0x86
	.db #0x25
	.db #0xC3
	.db #0x26
	.db #0xAB
	.db #0x27
	.db #0x0A
	.db #0x28
	.db #0xFD
	.db #0x20
	.db #0x42
	.db #0x21
	.db #0xE7
	.db #0x22
	.db #0x0F
	.db #0x24
	.db #0x89
	.db #0x25
	.db #0x07
	.db #0x26
	.db #0xAA
	.db #0x28
	.db #0xFE
	.db #0x20
	.db #0x00
	.db #0x21
	.db #0xBB
	.db #0x22
	.db #0x00
	.db #0x23
	.db #0x95
	.db #0x26
	.db #0x20
	.db #0x27
	.db #0x00
	.db #0x28
	.db #0xFF
	.db #0x20
	.db #0x05
	.db #0x21
	.db #0x00
	.db #0x23
	.db #0x84
	.db #0x26
	.db #0xB4
	.db #0x27
	.db #0x09
	.db #0x2A
	.db #0x08
	.db #0x10
	.db #0x01
	.db #0x3A
	.db #0x00
	.db #0x54
	.db #0x01
	.db #0x55
	.db #0x21
	.db #0x07
	.db #0x00
	.db #0x06
	.db #0x0C
	.db #0x0B
	.db #0x03
	.db #0x50
	.db #0x10
	.db #0x51
	.db #0x00
	.db #0x52
	.db #0x04
	.db #0x61
	.db #0x0F
	.db #0x64
	.db #0x55
	.db #0x65
	.db #0x55
	.db #0x05
	.db #0xA1
	.db #0x0D
	.db #0x04
	.db #0x18
	.db #0x04
	.db #0x0C
	.db #0x01
	.db #0xFF
	.db #0xFF
_MP3_Bitrates:
	.db #0x00
	.db #0x04
	.db #0x08
	.db #0x0C
	.db #0x10
	.db #0x14
	.db #0x18
	.db #0x1C
	.db #0x20
	.db #0x28
	.db #0x30
	.db #0x38
	.db #0x40
	.db #0x48
	.db #0x50
	.db #0x00
	.db #0x00
	.db #0x10
	.db #0x14
	.db #0x18
	.db #0x1C
	.db #0x20
	.db #0x28
	.db #0x30
	.db #0x38
	.db #0x40
	.db #0x50
	.db #0x60
	.db #0x70
	.db #0x80
	.db #0xA0
	.db #0x00
_MP3_SamplingFrequencies:
	.db #0x0B
	.db #0x0C
	.db #0x08
	.db #0x00
	.db #0x00
	.db #0x00
	.db #0x00
	.db #0x00
	.db #0x16
	.db #0x18
	.db #0x10
	.db #0x00
	.db #0x2C
	.db #0x30
	.db #0x20
	.db #0x00
__str_0:
	.db 0x0D
	.db 0x0A
	.ascii "Mode = %d Sampling Freq = %d Bitrate = %d"
	.db 0x00
	.area XINIT   (CODE)
